
OLED.elf:     file format elf32-littlearm

Sections:
Idx Name          Size      VMA       LMA       File off  Algn
  0 .isr_vector   00000130  08000000  08000000  00010000  2**0
                  CONTENTS, ALLOC, LOAD, READONLY, DATA
  1 .text         00000b10  08000130  08000130  00010130  2**2
                  CONTENTS, ALLOC, LOAD, READONLY, CODE
  2 .rodata       000005ec  08000c40  08000c40  00010c40  2**2
                  CONTENTS, ALLOC, LOAD, READONLY, DATA
  3 .ARM.extab    00000000  0800122c  0800122c  00020004  2**0
                  CONTENTS
  4 .ARM          00000000  0800122c  0800122c  00020004  2**0
                  CONTENTS
  5 .preinit_array 00000000  0800122c  0800122c  00020004  2**0
                  CONTENTS, ALLOC, LOAD, DATA
  6 .init_array   00000004  0800122c  0800122c  0001122c  2**2
                  CONTENTS, ALLOC, LOAD, DATA
  7 .fini_array   00000004  08001230  08001230  00011230  2**2
                  CONTENTS, ALLOC, LOAD, DATA
  8 .data         00000004  20000000  08001234  00020000  2**0
                  CONTENTS, ALLOC, LOAD, DATA
  9 .bss          0000041c  20000004  08001238  00020004  2**2
                  ALLOC
 10 ._user_heap_stack 00000600  20000420  08001238  00020420  2**0
                  ALLOC
 11 .ARM.attributes 00000029  00000000  00000000  00020004  2**0
                  CONTENTS, READONLY
 12 .comment      00000043  00000000  00000000  0002002d  2**0
                  CONTENTS, READONLY
 13 .debug_info   0000104d  00000000  00000000  00020070  2**0
                  CONTENTS, READONLY, DEBUGGING, OCTETS
 14 .debug_abbrev 000005a0  00000000  00000000  000210bd  2**0
                  CONTENTS, READONLY, DEBUGGING, OCTETS
 15 .debug_aranges 00000180  00000000  00000000  00021660  2**3
                  CONTENTS, READONLY, DEBUGGING, OCTETS
 16 .debug_rnglists 0000010b  00000000  00000000  000217e0  2**0
                  CONTENTS, READONLY, DEBUGGING, OCTETS
 17 .debug_macro  00001378  00000000  00000000  000218eb  2**0
                  CONTENTS, READONLY, DEBUGGING, OCTETS
 18 .debug_line   00001d52  00000000  00000000  00022c63  2**0
                  CONTENTS, READONLY, DEBUGGING, OCTETS
 19 .debug_str    0000462c  00000000  00000000  000249b5  2**0
                  CONTENTS, READONLY, DEBUGGING, OCTETS
 20 .debug_frame  000004dc  00000000  00000000  00028fe4  2**2
                  CONTENTS, READONLY, DEBUGGING, OCTETS
 21 .debug_line_str 0000006b  00000000  00000000  000294c0  2**0
                  CONTENTS, READONLY, DEBUGGING, OCTETS

Disassembly of section .text:

08000130 <__do_global_dtors_aux>:
 8000130:	b510      	push	{r4, lr}
 8000132:	4c05      	ldr	r4, [pc, #20]	; (8000148 <__do_global_dtors_aux+0x18>)
 8000134:	7823      	ldrb	r3, [r4, #0]
 8000136:	b933      	cbnz	r3, 8000146 <__do_global_dtors_aux+0x16>
 8000138:	4b04      	ldr	r3, [pc, #16]	; (800014c <__do_global_dtors_aux+0x1c>)
 800013a:	b113      	cbz	r3, 8000142 <__do_global_dtors_aux+0x12>
 800013c:	4804      	ldr	r0, [pc, #16]	; (8000150 <__do_global_dtors_aux+0x20>)
 800013e:	f3af 8000 	nop.w
 8000142:	2301      	movs	r3, #1
 8000144:	7023      	strb	r3, [r4, #0]
 8000146:	bd10      	pop	{r4, pc}
 8000148:	20000004 	.word	0x20000004
 800014c:	00000000 	.word	0x00000000
 8000150:	08000c28 	.word	0x08000c28

08000154 <frame_dummy>:
 8000154:	b508      	push	{r3, lr}
 8000156:	4b03      	ldr	r3, [pc, #12]	; (8000164 <frame_dummy+0x10>)
 8000158:	b11b      	cbz	r3, 8000162 <frame_dummy+0xe>
 800015a:	4903      	ldr	r1, [pc, #12]	; (8000168 <frame_dummy+0x14>)
 800015c:	4803      	ldr	r0, [pc, #12]	; (800016c <frame_dummy+0x18>)
 800015e:	f3af 8000 	nop.w
 8000162:	bd08      	pop	{r3, pc}
 8000164:	00000000 	.word	0x00000000
 8000168:	20000008 	.word	0x20000008
 800016c:	08000c28 	.word	0x08000c28

08000170 <USER_GPIO_Define>:

#include "main.h"
#include "GPIO.h"

void USER_GPIO_Define( uint8_t port, uint8_t pin, uint8_t direction, uint8_t option )
{
 8000170:	b490      	push	{r4, r7}
 8000172:	b084      	sub	sp, #16
 8000174:	af00      	add	r7, sp, #0
 8000176:	4604      	mov	r4, r0
 8000178:	4608      	mov	r0, r1
 800017a:	4611      	mov	r1, r2
 800017c:	461a      	mov	r2, r3
 800017e:	4623      	mov	r3, r4
 8000180:	71fb      	strb	r3, [r7, #7]
 8000182:	4603      	mov	r3, r0
 8000184:	71bb      	strb	r3, [r7, #6]
 8000186:	460b      	mov	r3, r1
 8000188:	717b      	strb	r3, [r7, #5]
 800018a:	4613      	mov	r3, r2
 800018c:	713b      	strb	r3, [r7, #4]
  volatile uint32_t * CR;
  uint8_t actual_pin = pin;
 800018e:	79bb      	ldrb	r3, [r7, #6]
 8000190:	72fb      	strb	r3, [r7, #11]
  uint8_t offset = 0x00;
 8000192:	2300      	movs	r3, #0
 8000194:	72bb      	strb	r3, [r7, #10]

  if( pin > 7 ) {
 8000196:	79bb      	ldrb	r3, [r7, #6]
 8000198:	2b07      	cmp	r3, #7
 800019a:	d904      	bls.n	80001a6 <USER_GPIO_Define+0x36>
      actual_pin -= 8;
 800019c:	7afb      	ldrb	r3, [r7, #11]
 800019e:	3b08      	subs	r3, #8
 80001a0:	72fb      	strb	r3, [r7, #11]
      offset = 0x01;
 80001a2:	2301      	movs	r3, #1
 80001a4:	72bb      	strb	r3, [r7, #10]
  }

  if( port == 0 )
 80001a6:	79fb      	ldrb	r3, [r7, #7]
 80001a8:	2b00      	cmp	r3, #0
 80001aa:	d107      	bne.n	80001bc <USER_GPIO_Define+0x4c>
  {
      CR = (volatile uint32_t *) (&GPIOA->CRL + offset);
 80001ac:	7abb      	ldrb	r3, [r7, #10]
 80001ae:	009b      	lsls	r3, r3, #2
 80001b0:	f103 4380 	add.w	r3, r3, #1073741824	; 0x40000000
 80001b4:	f503 3384 	add.w	r3, r3, #67584	; 0x10800
 80001b8:	60fb      	str	r3, [r7, #12]
 80001ba:	e040      	b.n	800023e <USER_GPIO_Define+0xce>
  }
  else if( port == 1 )
 80001bc:	79fb      	ldrb	r3, [r7, #7]
 80001be:	2b01      	cmp	r3, #1
 80001c0:	d107      	bne.n	80001d2 <USER_GPIO_Define+0x62>
  {
      CR = (volatile uint32_t *) (&GPIOB->CRL + offset);
 80001c2:	7abb      	ldrb	r3, [r7, #10]
 80001c4:	009b      	lsls	r3, r3, #2
 80001c6:	f103 4380 	add.w	r3, r3, #1073741824	; 0x40000000
 80001ca:	f503 3386 	add.w	r3, r3, #68608	; 0x10c00
 80001ce:	60fb      	str	r3, [r7, #12]
 80001d0:	e035      	b.n	800023e <USER_GPIO_Define+0xce>
  }
  else if ( port == 2 )
 80001d2:	79fb      	ldrb	r3, [r7, #7]
 80001d4:	2b02      	cmp	r3, #2
 80001d6:	d107      	bne.n	80001e8 <USER_GPIO_Define+0x78>
  {
      CR = (volatile uint32_t *) (&GPIOC->CRL + offset);
 80001d8:	7abb      	ldrb	r3, [r7, #10]
 80001da:	009b      	lsls	r3, r3, #2
 80001dc:	f103 4380 	add.w	r3, r3, #1073741824	; 0x40000000
 80001e0:	f503 3388 	add.w	r3, r3, #69632	; 0x11000
 80001e4:	60fb      	str	r3, [r7, #12]
 80001e6:	e02a      	b.n	800023e <USER_GPIO_Define+0xce>
  }
  else if ( port == 3 )
 80001e8:	79fb      	ldrb	r3, [r7, #7]
 80001ea:	2b03      	cmp	r3, #3
 80001ec:	d107      	bne.n	80001fe <USER_GPIO_Define+0x8e>
  {
      CR = (volatile uint32_t *) (&GPIOD->CRL + offset);
 80001ee:	7abb      	ldrb	r3, [r7, #10]
 80001f0:	009b      	lsls	r3, r3, #2
 80001f2:	f103 4380 	add.w	r3, r3, #1073741824	; 0x40000000
 80001f6:	f503 338a 	add.w	r3, r3, #70656	; 0x11400
 80001fa:	60fb      	str	r3, [r7, #12]
 80001fc:	e01f      	b.n	800023e <USER_GPIO_Define+0xce>
  }
  else if( port == 4 )
 80001fe:	79fb      	ldrb	r3, [r7, #7]
 8000200:	2b04      	cmp	r3, #4
 8000202:	d107      	bne.n	8000214 <USER_GPIO_Define+0xa4>
  {
      CR = (volatile uint32_t *) (&GPIOE->CRL + offset);
 8000204:	7abb      	ldrb	r3, [r7, #10]
 8000206:	009b      	lsls	r3, r3, #2
 8000208:	f103 4380 	add.w	r3, r3, #1073741824	; 0x40000000
 800020c:	f503 338c 	add.w	r3, r3, #71680	; 0x11800
 8000210:	60fb      	str	r3, [r7, #12]
 8000212:	e014      	b.n	800023e <USER_GPIO_Define+0xce>
  }
  else if( port == 5 )
 8000214:	79fb      	ldrb	r3, [r7, #7]
 8000216:	2b05      	cmp	r3, #5
 8000218:	d107      	bne.n	800022a <USER_GPIO_Define+0xba>
  {
      CR = (volatile uint32_t *) (&GPIOF->CRL + offset);
 800021a:	7abb      	ldrb	r3, [r7, #10]
 800021c:	009b      	lsls	r3, r3, #2
 800021e:	f103 4380 	add.w	r3, r3, #1073741824	; 0x40000000
 8000222:	f503 338e 	add.w	r3, r3, #72704	; 0x11c00
 8000226:	60fb      	str	r3, [r7, #12]
 8000228:	e009      	b.n	800023e <USER_GPIO_Define+0xce>
  }
  else if( port == 6 )
 800022a:	79fb      	ldrb	r3, [r7, #7]
 800022c:	2b06      	cmp	r3, #6
 800022e:	d106      	bne.n	800023e <USER_GPIO_Define+0xce>
  {
      CR = (volatile uint32_t *) (&GPIOG->CRL + offset);
 8000230:	7abb      	ldrb	r3, [r7, #10]
 8000232:	009b      	lsls	r3, r3, #2
 8000234:	f103 4380 	add.w	r3, r3, #1073741824	; 0x40000000
 8000238:	f503 3390 	add.w	r3, r3, #73728	; 0x12000
 800023c:	60fb      	str	r3, [r7, #12]
  }

  *CR	&=	~( 0xF << (actual_pin * 4) );		// Reset the target pin
 800023e:	68fb      	ldr	r3, [r7, #12]
 8000240:	681b      	ldr	r3, [r3, #0]
 8000242:	7afa      	ldrb	r2, [r7, #11]
 8000244:	0092      	lsls	r2, r2, #2
 8000246:	210f      	movs	r1, #15
 8000248:	fa01 f202 	lsl.w	r2, r1, r2
 800024c:	43d2      	mvns	r2, r2
 800024e:	401a      	ands	r2, r3
 8000250:	68fb      	ldr	r3, [r7, #12]
 8000252:	601a      	str	r2, [r3, #0]
  *CR	|=	( direction << (actual_pin * 4) )	// Set up the direction and the option for the pin
 8000254:	68fb      	ldr	r3, [r7, #12]
 8000256:	681b      	ldr	r3, [r3, #0]
 8000258:	7979      	ldrb	r1, [r7, #5]
 800025a:	7afa      	ldrb	r2, [r7, #11]
 800025c:	0092      	lsls	r2, r2, #2
 800025e:	4091      	lsls	r1, r2
	|	( option << (actual_pin * 4 + 2) );
 8000260:	7938      	ldrb	r0, [r7, #4]
 8000262:	7afa      	ldrb	r2, [r7, #11]
 8000264:	0092      	lsls	r2, r2, #2
 8000266:	3202      	adds	r2, #2
 8000268:	fa00 f202 	lsl.w	r2, r0, r2
 800026c:	430a      	orrs	r2, r1
  *CR	|=	( direction << (actual_pin * 4) )	// Set up the direction and the option for the pin
 800026e:	431a      	orrs	r2, r3
 8000270:	68fb      	ldr	r3, [r7, #12]
 8000272:	601a      	str	r2, [r3, #0]
}
 8000274:	bf00      	nop
 8000276:	3710      	adds	r7, #16
 8000278:	46bd      	mov	sp, r7
 800027a:	bc90      	pop	{r4, r7}
 800027c:	4770      	bx	lr
	...

08000280 <USER_I2C_Init>:
#include "GPIO.h"

// Init

void USER_I2C_Init( uint8_t I2C, uint8_t speed_mode )
{
 8000280:	b580      	push	{r7, lr}
 8000282:	b082      	sub	sp, #8
 8000284:	af00      	add	r7, sp, #0
 8000286:	4603      	mov	r3, r0
 8000288:	460a      	mov	r2, r1
 800028a:	71fb      	strb	r3, [r7, #7]
 800028c:	4613      	mov	r3, r2
 800028e:	71bb      	strb	r3, [r7, #6]
  RCC->APB2ENR		|=	RCC_APB2ENR_AFIOEN;	// Alternate function I/O clock enable
 8000290:	4b35      	ldr	r3, [pc, #212]	; (8000368 <USER_I2C_Init+0xe8>)
 8000292:	699b      	ldr	r3, [r3, #24]
 8000294:	4a34      	ldr	r2, [pc, #208]	; (8000368 <USER_I2C_Init+0xe8>)
 8000296:	f043 0301 	orr.w	r3, r3, #1
 800029a:	6193      	str	r3, [r2, #24]

  if( I2C == 0 )
 800029c:	79fb      	ldrb	r3, [r7, #7]
 800029e:	2b00      	cmp	r3, #0
 80002a0:	d12d      	bne.n	80002fe <USER_I2C_Init+0x7e>
  {
      RCC->APB1ENR 	|=	RCC_APB1ENR_I2C1EN;	// I2C1 clock enable
 80002a2:	4b31      	ldr	r3, [pc, #196]	; (8000368 <USER_I2C_Init+0xe8>)
 80002a4:	69db      	ldr	r3, [r3, #28]
 80002a6:	4a30      	ldr	r2, [pc, #192]	; (8000368 <USER_I2C_Init+0xe8>)
 80002a8:	f443 1300 	orr.w	r3, r3, #2097152	; 0x200000
 80002ac:	61d3      	str	r3, [r2, #28]

      USER_GPIO_Define( PORTB, 6, OUT_50, OUT_AF_OD );	// PB6 I2C1_SCL
 80002ae:	2303      	movs	r3, #3
 80002b0:	2203      	movs	r2, #3
 80002b2:	2106      	movs	r1, #6
 80002b4:	2001      	movs	r0, #1
 80002b6:	f7ff ff5b 	bl	8000170 <USER_GPIO_Define>
      USER_GPIO_Define( PORTB, 7, OUT_50, OUT_AF_OD );	// PB7 I2C1_SDA
 80002ba:	2303      	movs	r3, #3
 80002bc:	2203      	movs	r2, #3
 80002be:	2107      	movs	r1, #7
 80002c0:	2001      	movs	r0, #1
 80002c2:	f7ff ff55 	bl	8000170 <USER_GPIO_Define>

      I2C1->CR1		|=	I2C_CR1_SWRST;		// Software reset
 80002c6:	4b29      	ldr	r3, [pc, #164]	; (800036c <USER_I2C_Init+0xec>)
 80002c8:	681b      	ldr	r3, [r3, #0]
 80002ca:	4a28      	ldr	r2, [pc, #160]	; (800036c <USER_I2C_Init+0xec>)
 80002cc:	f443 4300 	orr.w	r3, r3, #32768	; 0x8000
 80002d0:	6013      	str	r3, [r2, #0]
      I2C1->CR1		&=	~I2C_CR1_SWRST;
 80002d2:	4b26      	ldr	r3, [pc, #152]	; (800036c <USER_I2C_Init+0xec>)
 80002d4:	681b      	ldr	r3, [r3, #0]
 80002d6:	4a25      	ldr	r2, [pc, #148]	; (800036c <USER_I2C_Init+0xec>)
 80002d8:	0c1b      	lsrs	r3, r3, #16
 80002da:	041b      	lsls	r3, r3, #16
 80002dc:	6013      	str	r3, [r2, #0]

      I2C1->CR2		=	I2C_CR2_FREQ;		// Peripheral clock frequency of 8 MHz
 80002de:	4b23      	ldr	r3, [pc, #140]	; (800036c <USER_I2C_Init+0xec>)
 80002e0:	2208      	movs	r2, #8
 80002e2:	605a      	str	r2, [r3, #4]

      I2C1->CCR		=	speed_mode;		// Clock control register in Fm/Sm mode
 80002e4:	4a21      	ldr	r2, [pc, #132]	; (800036c <USER_I2C_Init+0xec>)
 80002e6:	79bb      	ldrb	r3, [r7, #6]
 80002e8:	61d3      	str	r3, [r2, #28]
      I2C1->TRISE	=	I2C_TRISE_TRISE;	// Maximum rise time in Fm/Sm mode (Master mode)
 80002ea:	4b20      	ldr	r3, [pc, #128]	; (800036c <USER_I2C_Init+0xec>)
 80002ec:	2209      	movs	r2, #9
 80002ee:	621a      	str	r2, [r3, #32]

      I2C1->CR1		|=	I2C_CR1_PE;		// Peripheral enable
 80002f0:	4b1e      	ldr	r3, [pc, #120]	; (800036c <USER_I2C_Init+0xec>)
 80002f2:	681b      	ldr	r3, [r3, #0]
 80002f4:	4a1d      	ldr	r2, [pc, #116]	; (800036c <USER_I2C_Init+0xec>)
 80002f6:	f043 0301 	orr.w	r3, r3, #1
 80002fa:	6013      	str	r3, [r2, #0]
      I2C2->TRISE	=	I2C_TRISE_TRISE;

      I2C2->CR1		|=	I2C_CR1_PE;
  }

}
 80002fc:	e02f      	b.n	800035e <USER_I2C_Init+0xde>
  else if( I2C == 1 )
 80002fe:	79fb      	ldrb	r3, [r7, #7]
 8000300:	2b01      	cmp	r3, #1
 8000302:	d12c      	bne.n	800035e <USER_I2C_Init+0xde>
      RCC->APB1ENR 	|=	RCC_APB1ENR_I2C2EN;	// I2C2 clock enable
 8000304:	4b18      	ldr	r3, [pc, #96]	; (8000368 <USER_I2C_Init+0xe8>)
 8000306:	69db      	ldr	r3, [r3, #28]
 8000308:	4a17      	ldr	r2, [pc, #92]	; (8000368 <USER_I2C_Init+0xe8>)
 800030a:	f443 0380 	orr.w	r3, r3, #4194304	; 0x400000
 800030e:	61d3      	str	r3, [r2, #28]
      USER_GPIO_Define( PORTB, 10, OUT_50, OUT_AF_OD );	// PB10 I2C2_SCL
 8000310:	2303      	movs	r3, #3
 8000312:	2203      	movs	r2, #3
 8000314:	210a      	movs	r1, #10
 8000316:	2001      	movs	r0, #1
 8000318:	f7ff ff2a 	bl	8000170 <USER_GPIO_Define>
      USER_GPIO_Define( PORTB, 11, OUT_50, OUT_AF_OD );	// PB11 I2C2_SDA
 800031c:	2303      	movs	r3, #3
 800031e:	2203      	movs	r2, #3
 8000320:	210b      	movs	r1, #11
 8000322:	2001      	movs	r0, #1
 8000324:	f7ff ff24 	bl	8000170 <USER_GPIO_Define>
      I2C2->CR1		|=	I2C_CR1_SWRST;
 8000328:	4b11      	ldr	r3, [pc, #68]	; (8000370 <USER_I2C_Init+0xf0>)
 800032a:	681b      	ldr	r3, [r3, #0]
 800032c:	4a10      	ldr	r2, [pc, #64]	; (8000370 <USER_I2C_Init+0xf0>)
 800032e:	f443 4300 	orr.w	r3, r3, #32768	; 0x8000
 8000332:	6013      	str	r3, [r2, #0]
      I2C2->CR1		&=	~I2C_CR1_SWRST;
 8000334:	4b0e      	ldr	r3, [pc, #56]	; (8000370 <USER_I2C_Init+0xf0>)
 8000336:	681b      	ldr	r3, [r3, #0]
 8000338:	4a0d      	ldr	r2, [pc, #52]	; (8000370 <USER_I2C_Init+0xf0>)
 800033a:	0c1b      	lsrs	r3, r3, #16
 800033c:	041b      	lsls	r3, r3, #16
 800033e:	6013      	str	r3, [r2, #0]
      I2C2->CR2		=	I2C_CR2_FREQ;
 8000340:	4b0b      	ldr	r3, [pc, #44]	; (8000370 <USER_I2C_Init+0xf0>)
 8000342:	2208      	movs	r2, #8
 8000344:	605a      	str	r2, [r3, #4]
      I2C2->CCR		=	speed_mode;
 8000346:	4a0a      	ldr	r2, [pc, #40]	; (8000370 <USER_I2C_Init+0xf0>)
 8000348:	79bb      	ldrb	r3, [r7, #6]
 800034a:	61d3      	str	r3, [r2, #28]
      I2C2->TRISE	=	I2C_TRISE_TRISE;
 800034c:	4b08      	ldr	r3, [pc, #32]	; (8000370 <USER_I2C_Init+0xf0>)
 800034e:	2209      	movs	r2, #9
 8000350:	621a      	str	r2, [r3, #32]
      I2C2->CR1		|=	I2C_CR1_PE;
 8000352:	4b07      	ldr	r3, [pc, #28]	; (8000370 <USER_I2C_Init+0xf0>)
 8000354:	681b      	ldr	r3, [r3, #0]
 8000356:	4a06      	ldr	r2, [pc, #24]	; (8000370 <USER_I2C_Init+0xf0>)
 8000358:	f043 0301 	orr.w	r3, r3, #1
 800035c:	6013      	str	r3, [r2, #0]
}
 800035e:	bf00      	nop
 8000360:	3708      	adds	r7, #8
 8000362:	46bd      	mov	sp, r7
 8000364:	bd80      	pop	{r7, pc}
 8000366:	bf00      	nop
 8000368:	40021000 	.word	0x40021000
 800036c:	40005400 	.word	0x40005400
 8000370:	40005800 	.word	0x40005800

08000374 <USER_I2C_Start>:

// Start

void USER_I2C_Start( uint8_t I2C )
{
 8000374:	b480      	push	{r7}
 8000376:	b083      	sub	sp, #12
 8000378:	af00      	add	r7, sp, #0
 800037a:	4603      	mov	r3, r0
 800037c:	71fb      	strb	r3, [r7, #7]

  if( I2C == 0 )
 800037e:	79fb      	ldrb	r3, [r7, #7]
 8000380:	2b00      	cmp	r3, #0
 8000382:	d10d      	bne.n	80003a0 <USER_I2C_Start+0x2c>
  {
      I2C1->CR1		|=	I2C_CR1_START;		// Start generation
 8000384:	4b11      	ldr	r3, [pc, #68]	; (80003cc <USER_I2C_Start+0x58>)
 8000386:	681b      	ldr	r3, [r3, #0]
 8000388:	4a10      	ldr	r2, [pc, #64]	; (80003cc <USER_I2C_Start+0x58>)
 800038a:	f443 7380 	orr.w	r3, r3, #256	; 0x100
 800038e:	6013      	str	r3, [r2, #0]
      while (! ( I2C1->SR1 & I2C_SR1_SB) );		// Set when a Start condition generated
 8000390:	bf00      	nop
 8000392:	4b0e      	ldr	r3, [pc, #56]	; (80003cc <USER_I2C_Start+0x58>)
 8000394:	695b      	ldr	r3, [r3, #20]
 8000396:	f003 0301 	and.w	r3, r3, #1
 800039a:	2b00      	cmp	r3, #0
 800039c:	d0f9      	beq.n	8000392 <USER_I2C_Start+0x1e>
  {
      I2C2->CR1		|=	I2C_CR1_START;
      while (! ( I2C2->SR1 & I2C_SR1_SB ) );
  }

}
 800039e:	e00f      	b.n	80003c0 <USER_I2C_Start+0x4c>
  else if ( I2C == 1 )
 80003a0:	79fb      	ldrb	r3, [r7, #7]
 80003a2:	2b01      	cmp	r3, #1
 80003a4:	d10c      	bne.n	80003c0 <USER_I2C_Start+0x4c>
      I2C2->CR1		|=	I2C_CR1_START;
 80003a6:	4b0a      	ldr	r3, [pc, #40]	; (80003d0 <USER_I2C_Start+0x5c>)
 80003a8:	681b      	ldr	r3, [r3, #0]
 80003aa:	4a09      	ldr	r2, [pc, #36]	; (80003d0 <USER_I2C_Start+0x5c>)
 80003ac:	f443 7380 	orr.w	r3, r3, #256	; 0x100
 80003b0:	6013      	str	r3, [r2, #0]
      while (! ( I2C2->SR1 & I2C_SR1_SB ) );
 80003b2:	bf00      	nop
 80003b4:	4b06      	ldr	r3, [pc, #24]	; (80003d0 <USER_I2C_Start+0x5c>)
 80003b6:	695b      	ldr	r3, [r3, #20]
 80003b8:	f003 0301 	and.w	r3, r3, #1
 80003bc:	2b00      	cmp	r3, #0
 80003be:	d0f9      	beq.n	80003b4 <USER_I2C_Start+0x40>
}
 80003c0:	bf00      	nop
 80003c2:	370c      	adds	r7, #12
 80003c4:	46bd      	mov	sp, r7
 80003c6:	bc80      	pop	{r7}
 80003c8:	4770      	bx	lr
 80003ca:	bf00      	nop
 80003cc:	40005400 	.word	0x40005400
 80003d0:	40005800 	.word	0x40005800

080003d4 <USER_I2C_Address>:

// Send the address + R or W

void USER_I2C_Address( uint8_t I2C, uint8_t address, uint8_t RW )
{
 80003d4:	b480      	push	{r7}
 80003d6:	b085      	sub	sp, #20
 80003d8:	af00      	add	r7, sp, #0
 80003da:	4603      	mov	r3, r0
 80003dc:	71fb      	strb	r3, [r7, #7]
 80003de:	460b      	mov	r3, r1
 80003e0:	71bb      	strb	r3, [r7, #6]
 80003e2:	4613      	mov	r3, r2
 80003e4:	717b      	strb	r3, [r7, #5]
  volatile uint16_t tmp;

  if( I2C == 0 )
 80003e6:	79fb      	ldrb	r3, [r7, #7]
 80003e8:	2b00      	cmp	r3, #0
 80003ea:	d122      	bne.n	8000432 <USER_I2C_Address+0x5e>
  {
      I2C1->DR = ( address | RW );
 80003ec:	79ba      	ldrb	r2, [r7, #6]
 80003ee:	797b      	ldrb	r3, [r7, #5]
 80003f0:	4313      	orrs	r3, r2
 80003f2:	b2da      	uxtb	r2, r3
 80003f4:	4b26      	ldr	r3, [pc, #152]	; (8000490 <USER_I2C_Address+0xbc>)
 80003f6:	611a      	str	r2, [r3, #16]

      while( !( I2C1->SR1 & I2C_SR1_ADDR ) );		// ADDR flag is zero while address is mismatched or not received
 80003f8:	bf00      	nop
 80003fa:	4b25      	ldr	r3, [pc, #148]	; (8000490 <USER_I2C_Address+0xbc>)
 80003fc:	695b      	ldr	r3, [r3, #20]
 80003fe:	f003 0302 	and.w	r3, r3, #2
 8000402:	2b00      	cmp	r3, #0
 8000404:	d0f9      	beq.n	80003fa <USER_I2C_Address+0x26>
      while ( I2C1->SR1 & I2C_SR1_ADDR )		// ADDR flag is set when received address matched
 8000406:	e00d      	b.n	8000424 <USER_I2C_Address+0x50>
      {
	  tmp = I2C1->SR1;				// Reading I2C_SR2 after reading I2C_SR1 clears the ADDR flag
 8000408:	4b21      	ldr	r3, [pc, #132]	; (8000490 <USER_I2C_Address+0xbc>)
 800040a:	695b      	ldr	r3, [r3, #20]
 800040c:	b29b      	uxth	r3, r3
 800040e:	81fb      	strh	r3, [r7, #14]
	  tmp = I2C1->SR2;
 8000410:	4b1f      	ldr	r3, [pc, #124]	; (8000490 <USER_I2C_Address+0xbc>)
 8000412:	699b      	ldr	r3, [r3, #24]
 8000414:	b29b      	uxth	r3, r3
 8000416:	81fb      	strh	r3, [r7, #14]

	  if( !( I2C1->SR1 & I2C_SR1_ADDR ) )
 8000418:	4b1d      	ldr	r3, [pc, #116]	; (8000490 <USER_I2C_Address+0xbc>)
 800041a:	695b      	ldr	r3, [r3, #20]
 800041c:	f003 0302 	and.w	r3, r3, #2
 8000420:	2b00      	cmp	r3, #0
 8000422:	d02c      	beq.n	800047e <USER_I2C_Address+0xaa>
      while ( I2C1->SR1 & I2C_SR1_ADDR )		// ADDR flag is set when received address matched
 8000424:	4b1a      	ldr	r3, [pc, #104]	; (8000490 <USER_I2C_Address+0xbc>)
 8000426:	695b      	ldr	r3, [r3, #20]
 8000428:	f003 0302 	and.w	r3, r3, #2
 800042c:	2b00      	cmp	r3, #0
 800042e:	d1eb      	bne.n	8000408 <USER_I2C_Address+0x34>
	      break;
	  }
      }
  }

}
 8000430:	e028      	b.n	8000484 <USER_I2C_Address+0xb0>
  else if ( I2C == 1 )
 8000432:	79fb      	ldrb	r3, [r7, #7]
 8000434:	2b01      	cmp	r3, #1
 8000436:	d125      	bne.n	8000484 <USER_I2C_Address+0xb0>
      I2C2->DR = ( address | RW );
 8000438:	79ba      	ldrb	r2, [r7, #6]
 800043a:	797b      	ldrb	r3, [r7, #5]
 800043c:	4313      	orrs	r3, r2
 800043e:	b2da      	uxtb	r2, r3
 8000440:	4b14      	ldr	r3, [pc, #80]	; (8000494 <USER_I2C_Address+0xc0>)
 8000442:	611a      	str	r2, [r3, #16]
      while( !( I2C2->SR1 & I2C_SR1_ADDR ) );
 8000444:	bf00      	nop
 8000446:	4b13      	ldr	r3, [pc, #76]	; (8000494 <USER_I2C_Address+0xc0>)
 8000448:	695b      	ldr	r3, [r3, #20]
 800044a:	f003 0302 	and.w	r3, r3, #2
 800044e:	2b00      	cmp	r3, #0
 8000450:	d0f9      	beq.n	8000446 <USER_I2C_Address+0x72>
      while ( I2C2->SR1 & I2C_SR1_ADDR )
 8000452:	e00d      	b.n	8000470 <USER_I2C_Address+0x9c>
	  tmp = I2C2->SR1;
 8000454:	4b0f      	ldr	r3, [pc, #60]	; (8000494 <USER_I2C_Address+0xc0>)
 8000456:	695b      	ldr	r3, [r3, #20]
 8000458:	b29b      	uxth	r3, r3
 800045a:	81fb      	strh	r3, [r7, #14]
	  tmp = I2C2->SR2;
 800045c:	4b0d      	ldr	r3, [pc, #52]	; (8000494 <USER_I2C_Address+0xc0>)
 800045e:	699b      	ldr	r3, [r3, #24]
 8000460:	b29b      	uxth	r3, r3
 8000462:	81fb      	strh	r3, [r7, #14]
	  if( !( I2C2->SR1 & I2C_SR1_ADDR ) )
 8000464:	4b0b      	ldr	r3, [pc, #44]	; (8000494 <USER_I2C_Address+0xc0>)
 8000466:	695b      	ldr	r3, [r3, #20]
 8000468:	f003 0302 	and.w	r3, r3, #2
 800046c:	2b00      	cmp	r3, #0
 800046e:	d008      	beq.n	8000482 <USER_I2C_Address+0xae>
      while ( I2C2->SR1 & I2C_SR1_ADDR )
 8000470:	4b08      	ldr	r3, [pc, #32]	; (8000494 <USER_I2C_Address+0xc0>)
 8000472:	695b      	ldr	r3, [r3, #20]
 8000474:	f003 0302 	and.w	r3, r3, #2
 8000478:	2b00      	cmp	r3, #0
 800047a:	d1eb      	bne.n	8000454 <USER_I2C_Address+0x80>
}
 800047c:	e002      	b.n	8000484 <USER_I2C_Address+0xb0>
	      break;
 800047e:	bf00      	nop
 8000480:	e000      	b.n	8000484 <USER_I2C_Address+0xb0>
	      break;
 8000482:	bf00      	nop
}
 8000484:	bf00      	nop
 8000486:	3714      	adds	r7, #20
 8000488:	46bd      	mov	sp, r7
 800048a:	bc80      	pop	{r7}
 800048c:	4770      	bx	lr
 800048e:	bf00      	nop
 8000490:	40005400 	.word	0x40005400
 8000494:	40005800 	.word	0x40005800

08000498 <USER_I2C_Data>:

// Send data

void USER_I2C_Data( uint8_t I2C, uint8_t data )
{
 8000498:	b480      	push	{r7}
 800049a:	b083      	sub	sp, #12
 800049c:	af00      	add	r7, sp, #0
 800049e:	4603      	mov	r3, r0
 80004a0:	460a      	mov	r2, r1
 80004a2:	71fb      	strb	r3, [r7, #7]
 80004a4:	4613      	mov	r3, r2
 80004a6:	71bb      	strb	r3, [r7, #6]

  if( I2C == 0 )
 80004a8:	79fb      	ldrb	r3, [r7, #7]
 80004aa:	2b00      	cmp	r3, #0
 80004ac:	d111      	bne.n	80004d2 <USER_I2C_Data+0x3a>
  {
      while( !( I2C1->SR1 & I2C_SR1_TXE ) );		// While data register not empty
 80004ae:	bf00      	nop
 80004b0:	4b14      	ldr	r3, [pc, #80]	; (8000504 <USER_I2C_Data+0x6c>)
 80004b2:	695b      	ldr	r3, [r3, #20]
 80004b4:	f003 0380 	and.w	r3, r3, #128	; 0x80
 80004b8:	2b00      	cmp	r3, #0
 80004ba:	d0f9      	beq.n	80004b0 <USER_I2C_Data+0x18>
      I2C1->DR = data;
 80004bc:	4a11      	ldr	r2, [pc, #68]	; (8000504 <USER_I2C_Data+0x6c>)
 80004be:	79bb      	ldrb	r3, [r7, #6]
 80004c0:	6113      	str	r3, [r2, #16]
      while( !( I2C1->SR1 & I2C_SR1_TXE ) );
 80004c2:	bf00      	nop
 80004c4:	4b0f      	ldr	r3, [pc, #60]	; (8000504 <USER_I2C_Data+0x6c>)
 80004c6:	695b      	ldr	r3, [r3, #20]
 80004c8:	f003 0380 	and.w	r3, r3, #128	; 0x80
 80004cc:	2b00      	cmp	r3, #0
 80004ce:	d0f9      	beq.n	80004c4 <USER_I2C_Data+0x2c>
      while( !( I2C2->SR1 & I2C_SR1_TXE ) );		// While data register not empty
      I2C2->DR = data;
      while( !( I2C2->SR1 & I2C_SR1_TXE ) );
  }

}
 80004d0:	e013      	b.n	80004fa <USER_I2C_Data+0x62>
  else if ( I2C == 1 )
 80004d2:	79fb      	ldrb	r3, [r7, #7]
 80004d4:	2b01      	cmp	r3, #1
 80004d6:	d110      	bne.n	80004fa <USER_I2C_Data+0x62>
      while( !( I2C2->SR1 & I2C_SR1_TXE ) );		// While data register not empty
 80004d8:	bf00      	nop
 80004da:	4b0b      	ldr	r3, [pc, #44]	; (8000508 <USER_I2C_Data+0x70>)
 80004dc:	695b      	ldr	r3, [r3, #20]
 80004de:	f003 0380 	and.w	r3, r3, #128	; 0x80
 80004e2:	2b00      	cmp	r3, #0
 80004e4:	d0f9      	beq.n	80004da <USER_I2C_Data+0x42>
      I2C2->DR = data;
 80004e6:	4a08      	ldr	r2, [pc, #32]	; (8000508 <USER_I2C_Data+0x70>)
 80004e8:	79bb      	ldrb	r3, [r7, #6]
 80004ea:	6113      	str	r3, [r2, #16]
      while( !( I2C2->SR1 & I2C_SR1_TXE ) );
 80004ec:	bf00      	nop
 80004ee:	4b06      	ldr	r3, [pc, #24]	; (8000508 <USER_I2C_Data+0x70>)
 80004f0:	695b      	ldr	r3, [r3, #20]
 80004f2:	f003 0380 	and.w	r3, r3, #128	; 0x80
 80004f6:	2b00      	cmp	r3, #0
 80004f8:	d0f9      	beq.n	80004ee <USER_I2C_Data+0x56>
}
 80004fa:	bf00      	nop
 80004fc:	370c      	adds	r7, #12
 80004fe:	46bd      	mov	sp, r7
 8000500:	bc80      	pop	{r7}
 8000502:	4770      	bx	lr
 8000504:	40005400 	.word	0x40005400
 8000508:	40005800 	.word	0x40005800

0800050c <USER_I2C_Stop>:

// Stop

void USER_I2C_Stop( uint8_t I2C )
{
 800050c:	b480      	push	{r7}
 800050e:	b085      	sub	sp, #20
 8000510:	af00      	add	r7, sp, #0
 8000512:	4603      	mov	r3, r0
 8000514:	71fb      	strb	r3, [r7, #7]
  volatile uint16_t tmp;

  if( I2C == 0 )
 8000516:	79fb      	ldrb	r3, [r7, #7]
 8000518:	2b00      	cmp	r3, #0
 800051a:	d10e      	bne.n	800053a <USER_I2C_Stop+0x2e>
  {
      tmp = I2C1->SR1;
 800051c:	4b12      	ldr	r3, [pc, #72]	; (8000568 <USER_I2C_Stop+0x5c>)
 800051e:	695b      	ldr	r3, [r3, #20]
 8000520:	b29b      	uxth	r3, r3
 8000522:	81fb      	strh	r3, [r7, #14]
      tmp = I2C1->SR2;
 8000524:	4b10      	ldr	r3, [pc, #64]	; (8000568 <USER_I2C_Stop+0x5c>)
 8000526:	699b      	ldr	r3, [r3, #24]
 8000528:	b29b      	uxth	r3, r3
 800052a:	81fb      	strh	r3, [r7, #14]
      I2C1->CR1		|=	I2C_CR1_STOP;		// Stop generation
 800052c:	4b0e      	ldr	r3, [pc, #56]	; (8000568 <USER_I2C_Stop+0x5c>)
 800052e:	681b      	ldr	r3, [r3, #0]
 8000530:	4a0d      	ldr	r2, [pc, #52]	; (8000568 <USER_I2C_Stop+0x5c>)
 8000532:	f443 7300 	orr.w	r3, r3, #512	; 0x200
 8000536:	6013      	str	r3, [r2, #0]
      tmp = I2C2->SR1;
      tmp = I2C2->SR2;
      I2C2->CR1		|=	I2C_CR1_STOP;		// Stop generation
  }

}
 8000538:	e010      	b.n	800055c <USER_I2C_Stop+0x50>
  else if ( I2C == 1 )
 800053a:	79fb      	ldrb	r3, [r7, #7]
 800053c:	2b01      	cmp	r3, #1
 800053e:	d10d      	bne.n	800055c <USER_I2C_Stop+0x50>
      tmp = I2C2->SR1;
 8000540:	4b0a      	ldr	r3, [pc, #40]	; (800056c <USER_I2C_Stop+0x60>)
 8000542:	695b      	ldr	r3, [r3, #20]
 8000544:	b29b      	uxth	r3, r3
 8000546:	81fb      	strh	r3, [r7, #14]
      tmp = I2C2->SR2;
 8000548:	4b08      	ldr	r3, [pc, #32]	; (800056c <USER_I2C_Stop+0x60>)
 800054a:	699b      	ldr	r3, [r3, #24]
 800054c:	b29b      	uxth	r3, r3
 800054e:	81fb      	strh	r3, [r7, #14]
      I2C2->CR1		|=	I2C_CR1_STOP;		// Stop generation
 8000550:	4b06      	ldr	r3, [pc, #24]	; (800056c <USER_I2C_Stop+0x60>)
 8000552:	681b      	ldr	r3, [r3, #0]
 8000554:	4a05      	ldr	r2, [pc, #20]	; (800056c <USER_I2C_Stop+0x60>)
 8000556:	f443 7300 	orr.w	r3, r3, #512	; 0x200
 800055a:	6013      	str	r3, [r2, #0]
}
 800055c:	bf00      	nop
 800055e:	3714      	adds	r7, #20
 8000560:	46bd      	mov	sp, r7
 8000562:	bc80      	pop	{r7}
 8000564:	4770      	bx	lr
 8000566:	bf00      	nop
 8000568:	40005400 	.word	0x40005400
 800056c:	40005800 	.word	0x40005800

08000570 <USER_OLED_Command_1_Byte>:

#include "OLED.h"
#include "I2C.h"

void USER_OLED_Command_1_Byte( uint8_t I2C, uint8_t data )
{
 8000570:	b580      	push	{r7, lr}
 8000572:	b082      	sub	sp, #8
 8000574:	af00      	add	r7, sp, #0
 8000576:	4603      	mov	r3, r0
 8000578:	460a      	mov	r2, r1
 800057a:	71fb      	strb	r3, [r7, #7]
 800057c:	4613      	mov	r3, r2
 800057e:	71bb      	strb	r3, [r7, #6]
  USER_I2C_Start( I2C );
 8000580:	79fb      	ldrb	r3, [r7, #7]
 8000582:	4618      	mov	r0, r3
 8000584:	f7ff fef6 	bl	8000374 <USER_I2C_Start>
  USER_I2C_Address( I2C, OLED_PRIMARY_ADDRESS, 0 );
 8000588:	79fb      	ldrb	r3, [r7, #7]
 800058a:	2200      	movs	r2, #0
 800058c:	2178      	movs	r1, #120	; 0x78
 800058e:	4618      	mov	r0, r3
 8000590:	f7ff ff20 	bl	80003d4 <USER_I2C_Address>

  USER_I2C_Data( I2C, 0x00 );				// Control function for a command
 8000594:	79fb      	ldrb	r3, [r7, #7]
 8000596:	2100      	movs	r1, #0
 8000598:	4618      	mov	r0, r3
 800059a:	f7ff ff7d 	bl	8000498 <USER_I2C_Data>
  USER_I2C_Data( I2C, data );
 800059e:	79ba      	ldrb	r2, [r7, #6]
 80005a0:	79fb      	ldrb	r3, [r7, #7]
 80005a2:	4611      	mov	r1, r2
 80005a4:	4618      	mov	r0, r3
 80005a6:	f7ff ff77 	bl	8000498 <USER_I2C_Data>

  USER_I2C_Stop( I2C );
 80005aa:	79fb      	ldrb	r3, [r7, #7]
 80005ac:	4618      	mov	r0, r3
 80005ae:	f7ff ffad 	bl	800050c <USER_I2C_Stop>
}
 80005b2:	bf00      	nop
 80005b4:	3708      	adds	r7, #8
 80005b6:	46bd      	mov	sp, r7
 80005b8:	bd80      	pop	{r7, pc}

080005ba <USER_OLED_Command_2_Byte>:

void USER_OLED_Command_2_Byte( uint8_t I2C, uint8_t data[] )
{
 80005ba:	b580      	push	{r7, lr}
 80005bc:	b084      	sub	sp, #16
 80005be:	af00      	add	r7, sp, #0
 80005c0:	4603      	mov	r3, r0
 80005c2:	6039      	str	r1, [r7, #0]
 80005c4:	71fb      	strb	r3, [r7, #7]
  uint8_t i = 0;
 80005c6:	2300      	movs	r3, #0
 80005c8:	73fb      	strb	r3, [r7, #15]

  USER_I2C_Start( I2C );
 80005ca:	79fb      	ldrb	r3, [r7, #7]
 80005cc:	4618      	mov	r0, r3
 80005ce:	f7ff fed1 	bl	8000374 <USER_I2C_Start>
  USER_I2C_Address( I2C, OLED_PRIMARY_ADDRESS, 0 );
 80005d2:	79fb      	ldrb	r3, [r7, #7]
 80005d4:	2200      	movs	r2, #0
 80005d6:	2178      	movs	r1, #120	; 0x78
 80005d8:	4618      	mov	r0, r3
 80005da:	f7ff fefb 	bl	80003d4 <USER_I2C_Address>

  USER_I2C_Data( I2C, 0x00 );	// Control function for a command
 80005de:	79fb      	ldrb	r3, [r7, #7]
 80005e0:	2100      	movs	r1, #0
 80005e2:	4618      	mov	r0, r3
 80005e4:	f7ff ff58 	bl	8000498 <USER_I2C_Data>
  for(i = 0; i < 2; i++)
 80005e8:	2300      	movs	r3, #0
 80005ea:	73fb      	strb	r3, [r7, #15]
 80005ec:	e00b      	b.n	8000606 <USER_OLED_Command_2_Byte+0x4c>
  {
      USER_I2C_Data( I2C, data[i] );
 80005ee:	7bfb      	ldrb	r3, [r7, #15]
 80005f0:	683a      	ldr	r2, [r7, #0]
 80005f2:	4413      	add	r3, r2
 80005f4:	781a      	ldrb	r2, [r3, #0]
 80005f6:	79fb      	ldrb	r3, [r7, #7]
 80005f8:	4611      	mov	r1, r2
 80005fa:	4618      	mov	r0, r3
 80005fc:	f7ff ff4c 	bl	8000498 <USER_I2C_Data>
  for(i = 0; i < 2; i++)
 8000600:	7bfb      	ldrb	r3, [r7, #15]
 8000602:	3301      	adds	r3, #1
 8000604:	73fb      	strb	r3, [r7, #15]
 8000606:	7bfb      	ldrb	r3, [r7, #15]
 8000608:	2b01      	cmp	r3, #1
 800060a:	d9f0      	bls.n	80005ee <USER_OLED_Command_2_Byte+0x34>
  }

  USER_I2C_Stop( I2C );
 800060c:	79fb      	ldrb	r3, [r7, #7]
 800060e:	4618      	mov	r0, r3
 8000610:	f7ff ff7c 	bl	800050c <USER_I2C_Stop>
}
 8000614:	bf00      	nop
 8000616:	3710      	adds	r7, #16
 8000618:	46bd      	mov	sp, r7
 800061a:	bd80      	pop	{r7, pc}

0800061c <USER_OLED_Init>:

void USER_OLED_Init( uint8_t I2C, uint8_t screen_size )
{
 800061c:	b580      	push	{r7, lr}
 800061e:	b08a      	sub	sp, #40	; 0x28
 8000620:	af00      	add	r7, sp, #0
 8000622:	4603      	mov	r3, r0
 8000624:	460a      	mov	r2, r1
 8000626:	71fb      	strb	r3, [r7, #7]
 8000628:	4613      	mov	r3, r2
 800062a:	71bb      	strb	r3, [r7, #6]
  USER_I2C_Init( I2C, I2C_FM );
 800062c:	79fb      	ldrb	r3, [r7, #7]
 800062e:	212d      	movs	r1, #45	; 0x2d
 8000630:	4618      	mov	r0, r3
 8000632:	f7ff fe25 	bl	8000280 <USER_I2C_Init>

  uint8_t cmd_1[] = {0xA8, 0x3F};
 8000636:	f643 73a8 	movw	r3, #16296	; 0x3fa8
 800063a:	84bb      	strh	r3, [r7, #36]	; 0x24
  USER_OLED_Command_2_Byte( I2C, cmd_1 );
 800063c:	f107 0224 	add.w	r2, r7, #36	; 0x24
 8000640:	79fb      	ldrb	r3, [r7, #7]
 8000642:	4611      	mov	r1, r2
 8000644:	4618      	mov	r0, r3
 8000646:	f7ff ffb8 	bl	80005ba <USER_OLED_Command_2_Byte>

  uint8_t cmd_2[] = {0xD3, 0x00};
 800064a:	23d3      	movs	r3, #211	; 0xd3
 800064c:	843b      	strh	r3, [r7, #32]
  USER_OLED_Command_2_Byte( I2C, cmd_2 );
 800064e:	f107 0220 	add.w	r2, r7, #32
 8000652:	79fb      	ldrb	r3, [r7, #7]
 8000654:	4611      	mov	r1, r2
 8000656:	4618      	mov	r0, r3
 8000658:	f7ff ffaf 	bl	80005ba <USER_OLED_Command_2_Byte>

  USER_OLED_Command_1_Byte( I2C, 0x40 );
 800065c:	79fb      	ldrb	r3, [r7, #7]
 800065e:	2140      	movs	r1, #64	; 0x40
 8000660:	4618      	mov	r0, r3
 8000662:	f7ff ff85 	bl	8000570 <USER_OLED_Command_1_Byte>
  USER_OLED_Command_1_Byte( I2C, 0xA1 );
 8000666:	79fb      	ldrb	r3, [r7, #7]
 8000668:	21a1      	movs	r1, #161	; 0xa1
 800066a:	4618      	mov	r0, r3
 800066c:	f7ff ff80 	bl	8000570 <USER_OLED_Command_1_Byte>

  USER_OLED_Command_1_Byte( I2C, 0xC8 );
 8000670:	79fb      	ldrb	r3, [r7, #7]
 8000672:	21c8      	movs	r1, #200	; 0xc8
 8000674:	4618      	mov	r0, r3
 8000676:	f7ff ff7b 	bl	8000570 <USER_OLED_Command_1_Byte>

  uint8_t cmd_3[] = {0xDA, screen_size};
 800067a:	23da      	movs	r3, #218	; 0xda
 800067c:	773b      	strb	r3, [r7, #28]
 800067e:	79bb      	ldrb	r3, [r7, #6]
 8000680:	777b      	strb	r3, [r7, #29]
  USER_OLED_Command_2_Byte( I2C, cmd_3 );
 8000682:	f107 021c 	add.w	r2, r7, #28
 8000686:	79fb      	ldrb	r3, [r7, #7]
 8000688:	4611      	mov	r1, r2
 800068a:	4618      	mov	r0, r3
 800068c:	f7ff ff95 	bl	80005ba <USER_OLED_Command_2_Byte>

  uint8_t cmd_4[] = {0x81, 0x7F};
 8000690:	f647 7381 	movw	r3, #32641	; 0x7f81
 8000694:	833b      	strh	r3, [r7, #24]
  USER_OLED_Command_2_Byte( I2C, cmd_4 );
 8000696:	f107 0218 	add.w	r2, r7, #24
 800069a:	79fb      	ldrb	r3, [r7, #7]
 800069c:	4611      	mov	r1, r2
 800069e:	4618      	mov	r0, r3
 80006a0:	f7ff ff8b 	bl	80005ba <USER_OLED_Command_2_Byte>

  USER_OLED_Command_1_Byte( I2C, 0xA4 );
 80006a4:	79fb      	ldrb	r3, [r7, #7]
 80006a6:	21a4      	movs	r1, #164	; 0xa4
 80006a8:	4618      	mov	r0, r3
 80006aa:	f7ff ff61 	bl	8000570 <USER_OLED_Command_1_Byte>
  USER_OLED_Command_1_Byte( I2C, 0xA6 );
 80006ae:	79fb      	ldrb	r3, [r7, #7]
 80006b0:	21a6      	movs	r1, #166	; 0xa6
 80006b2:	4618      	mov	r0, r3
 80006b4:	f7ff ff5c 	bl	8000570 <USER_OLED_Command_1_Byte>

  uint8_t cmd_5[] = {0xD5, 0x80};
 80006b8:	f248 03d5 	movw	r3, #32981	; 0x80d5
 80006bc:	82bb      	strh	r3, [r7, #20]
  USER_OLED_Command_2_Byte( I2C, cmd_5 );
 80006be:	f107 0214 	add.w	r2, r7, #20
 80006c2:	79fb      	ldrb	r3, [r7, #7]
 80006c4:	4611      	mov	r1, r2
 80006c6:	4618      	mov	r0, r3
 80006c8:	f7ff ff77 	bl	80005ba <USER_OLED_Command_2_Byte>

  uint8_t cmd_6[] = {0x8D, 0x14};
 80006cc:	f241 438d 	movw	r3, #5261	; 0x148d
 80006d0:	823b      	strh	r3, [r7, #16]
  USER_OLED_Command_2_Byte( I2C, cmd_6 );
 80006d2:	f107 0210 	add.w	r2, r7, #16
 80006d6:	79fb      	ldrb	r3, [r7, #7]
 80006d8:	4611      	mov	r1, r2
 80006da:	4618      	mov	r0, r3
 80006dc:	f7ff ff6d 	bl	80005ba <USER_OLED_Command_2_Byte>

  USER_OLED_Command_1_Byte( I2C, 0xAF );
 80006e0:	79fb      	ldrb	r3, [r7, #7]
 80006e2:	21af      	movs	r1, #175	; 0xaf
 80006e4:	4618      	mov	r0, r3
 80006e6:	f7ff ff43 	bl	8000570 <USER_OLED_Command_1_Byte>

  uint8_t cmd_7[] = {0x20, 0x10};
 80006ea:	f44f 5381 	mov.w	r3, #4128	; 0x1020
 80006ee:	81bb      	strh	r3, [r7, #12]
  USER_OLED_Command_2_Byte( I2C, cmd_7 );
 80006f0:	f107 020c 	add.w	r2, r7, #12
 80006f4:	79fb      	ldrb	r3, [r7, #7]
 80006f6:	4611      	mov	r1, r2
 80006f8:	4618      	mov	r0, r3
 80006fa:	f7ff ff5e 	bl	80005ba <USER_OLED_Command_2_Byte>
}
 80006fe:	bf00      	nop
 8000700:	3728      	adds	r7, #40	; 0x28
 8000702:	46bd      	mov	sp, r7
 8000704:	bd80      	pop	{r7, pc}

08000706 <USER_OLED_Init_64>:
{
  USER_OLED_Init(I2C, 0x22);
}

void USER_OLED_Init_64( uint8_t I2C )
{
 8000706:	b580      	push	{r7, lr}
 8000708:	b082      	sub	sp, #8
 800070a:	af00      	add	r7, sp, #0
 800070c:	4603      	mov	r3, r0
 800070e:	71fb      	strb	r3, [r7, #7]
  USER_OLED_Init(I2C, 0x12);
 8000710:	79fb      	ldrb	r3, [r7, #7]
 8000712:	2112      	movs	r1, #18
 8000714:	4618      	mov	r0, r3
 8000716:	f7ff ff81 	bl	800061c <USER_OLED_Init>
}
 800071a:	bf00      	nop
 800071c:	3708      	adds	r7, #8
 800071e:	46bd      	mov	sp, r7
 8000720:	bd80      	pop	{r7, pc}

08000722 <USER_OLED_Data>:

void USER_OLED_Data( uint8_t I2C, uint8_t data )
{
 8000722:	b580      	push	{r7, lr}
 8000724:	b082      	sub	sp, #8
 8000726:	af00      	add	r7, sp, #0
 8000728:	4603      	mov	r3, r0
 800072a:	460a      	mov	r2, r1
 800072c:	71fb      	strb	r3, [r7, #7]
 800072e:	4613      	mov	r3, r2
 8000730:	71bb      	strb	r3, [r7, #6]
  USER_I2C_Start( I2C );
 8000732:	79fb      	ldrb	r3, [r7, #7]
 8000734:	4618      	mov	r0, r3
 8000736:	f7ff fe1d 	bl	8000374 <USER_I2C_Start>
  USER_I2C_Address( I2C, OLED_PRIMARY_ADDRESS, 0 );
 800073a:	79fb      	ldrb	r3, [r7, #7]
 800073c:	2200      	movs	r2, #0
 800073e:	2178      	movs	r1, #120	; 0x78
 8000740:	4618      	mov	r0, r3
 8000742:	f7ff fe47 	bl	80003d4 <USER_I2C_Address>

  USER_I2C_Data( I2C, 0x40 );				// Control function for data
 8000746:	79fb      	ldrb	r3, [r7, #7]
 8000748:	2140      	movs	r1, #64	; 0x40
 800074a:	4618      	mov	r0, r3
 800074c:	f7ff fea4 	bl	8000498 <USER_I2C_Data>
  USER_I2C_Data( I2C, data );
 8000750:	79ba      	ldrb	r2, [r7, #6]
 8000752:	79fb      	ldrb	r3, [r7, #7]
 8000754:	4611      	mov	r1, r2
 8000756:	4618      	mov	r0, r3
 8000758:	f7ff fe9e 	bl	8000498 <USER_I2C_Data>

  USER_I2C_Stop( I2C );
 800075c:	79fb      	ldrb	r3, [r7, #7]
 800075e:	4618      	mov	r0, r3
 8000760:	f7ff fed4 	bl	800050c <USER_I2C_Stop>
}
 8000764:	bf00      	nop
 8000766:	3708      	adds	r7, #8
 8000768:	46bd      	mov	sp, r7
 800076a:	bd80      	pop	{r7, pc}

0800076c <USER_OLED_Position>:

void USER_OLED_Position( uint8_t I2C, uint8_t x_pos, uint8_t y_pos )
{
 800076c:	b580      	push	{r7, lr}
 800076e:	b082      	sub	sp, #8
 8000770:	af00      	add	r7, sp, #0
 8000772:	4603      	mov	r3, r0
 8000774:	71fb      	strb	r3, [r7, #7]
 8000776:	460b      	mov	r3, r1
 8000778:	71bb      	strb	r3, [r7, #6]
 800077a:	4613      	mov	r3, r2
 800077c:	717b      	strb	r3, [r7, #5]
  USER_OLED_Command_1_Byte( I2C, 0x00 + ( 0x0F & x_pos ) );
 800077e:	79bb      	ldrb	r3, [r7, #6]
 8000780:	f003 030f 	and.w	r3, r3, #15
 8000784:	b2da      	uxtb	r2, r3
 8000786:	79fb      	ldrb	r3, [r7, #7]
 8000788:	4611      	mov	r1, r2
 800078a:	4618      	mov	r0, r3
 800078c:	f7ff fef0 	bl	8000570 <USER_OLED_Command_1_Byte>
  USER_OLED_Command_1_Byte( I2C, 0x10 + (0x0F & ( x_pos >> 4 ) ) );
 8000790:	79bb      	ldrb	r3, [r7, #6]
 8000792:	091b      	lsrs	r3, r3, #4
 8000794:	b2db      	uxtb	r3, r3
 8000796:	3310      	adds	r3, #16
 8000798:	b2da      	uxtb	r2, r3
 800079a:	79fb      	ldrb	r3, [r7, #7]
 800079c:	4611      	mov	r1, r2
 800079e:	4618      	mov	r0, r3
 80007a0:	f7ff fee6 	bl	8000570 <USER_OLED_Command_1_Byte>
  USER_OLED_Command_1_Byte( I2C, 0xB0 + y_pos );
 80007a4:	797b      	ldrb	r3, [r7, #5]
 80007a6:	3b50      	subs	r3, #80	; 0x50
 80007a8:	b2da      	uxtb	r2, r3
 80007aa:	79fb      	ldrb	r3, [r7, #7]
 80007ac:	4611      	mov	r1, r2
 80007ae:	4618      	mov	r0, r3
 80007b0:	f7ff fede 	bl	8000570 <USER_OLED_Command_1_Byte>
}
 80007b4:	bf00      	nop
 80007b6:	3708      	adds	r7, #8
 80007b8:	46bd      	mov	sp, r7
 80007ba:	bd80      	pop	{r7, pc}

080007bc <USER_OLED_Blank>:


void USER_OLED_Blank( uint8_t I2C )
{
 80007bc:	b580      	push	{r7, lr}
 80007be:	b084      	sub	sp, #16
 80007c0:	af00      	add	r7, sp, #0
 80007c2:	4603      	mov	r3, r0
 80007c4:	71fb      	strb	r3, [r7, #7]
  uint8_t i, j;

  USER_OLED_Position( I2C, 0, 0 );
 80007c6:	79fb      	ldrb	r3, [r7, #7]
 80007c8:	2200      	movs	r2, #0
 80007ca:	2100      	movs	r1, #0
 80007cc:	4618      	mov	r0, r3
 80007ce:	f7ff ffcd 	bl	800076c <USER_OLED_Position>

  for(i = 0; i < OLED_SCREEN_ROWS; i++)
 80007d2:	2300      	movs	r3, #0
 80007d4:	73fb      	strb	r3, [r7, #15]
 80007d6:	e011      	b.n	80007fc <USER_OLED_Blank+0x40>
  {
    for(j = 0; j < OLED_SCREEN_COLUMNS; j++)
 80007d8:	2300      	movs	r3, #0
 80007da:	73bb      	strb	r3, [r7, #14]
 80007dc:	e007      	b.n	80007ee <USER_OLED_Blank+0x32>
    {
	USER_OLED_Data( I2C, 0x0 );
 80007de:	79fb      	ldrb	r3, [r7, #7]
 80007e0:	2100      	movs	r1, #0
 80007e2:	4618      	mov	r0, r3
 80007e4:	f7ff ff9d 	bl	8000722 <USER_OLED_Data>
    for(j = 0; j < OLED_SCREEN_COLUMNS; j++)
 80007e8:	7bbb      	ldrb	r3, [r7, #14]
 80007ea:	3301      	adds	r3, #1
 80007ec:	73bb      	strb	r3, [r7, #14]
 80007ee:	f997 300e 	ldrsb.w	r3, [r7, #14]
 80007f2:	2b00      	cmp	r3, #0
 80007f4:	daf3      	bge.n	80007de <USER_OLED_Blank+0x22>
  for(i = 0; i < OLED_SCREEN_ROWS; i++)
 80007f6:	7bfb      	ldrb	r3, [r7, #15]
 80007f8:	3301      	adds	r3, #1
 80007fa:	73fb      	strb	r3, [r7, #15]
 80007fc:	7bfb      	ldrb	r3, [r7, #15]
 80007fe:	2b07      	cmp	r3, #7
 8000800:	d9ea      	bls.n	80007d8 <USER_OLED_Blank+0x1c>
    }
  }
}
 8000802:	bf00      	nop
 8000804:	bf00      	nop
 8000806:	3710      	adds	r7, #16
 8000808:	46bd      	mov	sp, r7
 800080a:	bd80      	pop	{r7, pc}

0800080c <USER_OLED_Print>:

void USER_OLED_Print( uint8_t I2C, char str[] )
{
 800080c:	b580      	push	{r7, lr}
 800080e:	b084      	sub	sp, #16
 8000810:	af00      	add	r7, sp, #0
 8000812:	4603      	mov	r3, r0
 8000814:	6039      	str	r1, [r7, #0]
 8000816:	71fb      	strb	r3, [r7, #7]
  uint8_t i = 0, j;
 8000818:	2300      	movs	r3, #0
 800081a:	73fb      	strb	r3, [r7, #15]

  while( str[i] )
 800081c:	e01e      	b.n	800085c <USER_OLED_Print+0x50>
  {
      for(j = 0; j < 5; j++)
 800081e:	2300      	movs	r3, #0
 8000820:	73bb      	strb	r3, [r7, #14]
 8000822:	e015      	b.n	8000850 <USER_OLED_Print+0x44>
      {
	   USER_OLED_Data(I2C, ASCII[str[i] - 32][j]);
 8000824:	7bfb      	ldrb	r3, [r7, #15]
 8000826:	683a      	ldr	r2, [r7, #0]
 8000828:	4413      	add	r3, r2
 800082a:	781b      	ldrb	r3, [r3, #0]
 800082c:	f1a3 0220 	sub.w	r2, r3, #32
 8000830:	7bb9      	ldrb	r1, [r7, #14]
 8000832:	4810      	ldr	r0, [pc, #64]	; (8000874 <USER_OLED_Print+0x68>)
 8000834:	4613      	mov	r3, r2
 8000836:	009b      	lsls	r3, r3, #2
 8000838:	4413      	add	r3, r2
 800083a:	4403      	add	r3, r0
 800083c:	440b      	add	r3, r1
 800083e:	781a      	ldrb	r2, [r3, #0]
 8000840:	79fb      	ldrb	r3, [r7, #7]
 8000842:	4611      	mov	r1, r2
 8000844:	4618      	mov	r0, r3
 8000846:	f7ff ff6c 	bl	8000722 <USER_OLED_Data>
      for(j = 0; j < 5; j++)
 800084a:	7bbb      	ldrb	r3, [r7, #14]
 800084c:	3301      	adds	r3, #1
 800084e:	73bb      	strb	r3, [r7, #14]
 8000850:	7bbb      	ldrb	r3, [r7, #14]
 8000852:	2b04      	cmp	r3, #4
 8000854:	d9e6      	bls.n	8000824 <USER_OLED_Print+0x18>
      }

      i++;
 8000856:	7bfb      	ldrb	r3, [r7, #15]
 8000858:	3301      	adds	r3, #1
 800085a:	73fb      	strb	r3, [r7, #15]
  while( str[i] )
 800085c:	7bfb      	ldrb	r3, [r7, #15]
 800085e:	683a      	ldr	r2, [r7, #0]
 8000860:	4413      	add	r3, r2
 8000862:	781b      	ldrb	r3, [r3, #0]
 8000864:	2b00      	cmp	r3, #0
 8000866:	d1da      	bne.n	800081e <USER_OLED_Print+0x12>
  }
}
 8000868:	bf00      	nop
 800086a:	bf00      	nop
 800086c:	3710      	adds	r7, #16
 800086e:	46bd      	mov	sp, r7
 8000870:	bd80      	pop	{r7, pc}
 8000872:	bf00      	nop
 8000874:	08000c4c 	.word	0x08000c4c

08000878 <USER_OLED_Message>:

void USER_OLED_Message( uint8_t I2C, char str[], uint8_t x_pos, uint8_t y_pos )
{
 8000878:	b580      	push	{r7, lr}
 800087a:	b082      	sub	sp, #8
 800087c:	af00      	add	r7, sp, #0
 800087e:	6039      	str	r1, [r7, #0]
 8000880:	4611      	mov	r1, r2
 8000882:	461a      	mov	r2, r3
 8000884:	4603      	mov	r3, r0
 8000886:	71fb      	strb	r3, [r7, #7]
 8000888:	460b      	mov	r3, r1
 800088a:	71bb      	strb	r3, [r7, #6]
 800088c:	4613      	mov	r3, r2
 800088e:	717b      	strb	r3, [r7, #5]
  USER_OLED_Position(I2C, x_pos, y_pos);
 8000890:	797a      	ldrb	r2, [r7, #5]
 8000892:	79b9      	ldrb	r1, [r7, #6]
 8000894:	79fb      	ldrb	r3, [r7, #7]
 8000896:	4618      	mov	r0, r3
 8000898:	f7ff ff68 	bl	800076c <USER_OLED_Position>
  USER_OLED_Print(I2C, str);
 800089c:	79fb      	ldrb	r3, [r7, #7]
 800089e:	6839      	ldr	r1, [r7, #0]
 80008a0:	4618      	mov	r0, r3
 80008a2:	f7ff ffb3 	bl	800080c <USER_OLED_Print>
}
 80008a6:	bf00      	nop
 80008a8:	3708      	adds	r7, #8
 80008aa:	46bd      	mov	sp, r7
 80008ac:	bd80      	pop	{r7, pc}

080008ae <USER_OLED_Clear_Buffer>:

void USER_OLED_Clear_Buffer( char screen_buffer[OLED_SCREEN_ROWS][OLED_SCREEN_COLUMNS] )
{
 80008ae:	b480      	push	{r7}
 80008b0:	b085      	sub	sp, #20
 80008b2:	af00      	add	r7, sp, #0
 80008b4:	6078      	str	r0, [r7, #4]
  uint8_t i, j;

  for(i = 0; i < OLED_SCREEN_ROWS; i++)
 80008b6:	2300      	movs	r3, #0
 80008b8:	73fb      	strb	r3, [r7, #15]
 80008ba:	e013      	b.n	80008e4 <USER_OLED_Clear_Buffer+0x36>
  {
      for(j = 0; j < OLED_SCREEN_COLUMNS; j++)
 80008bc:	2300      	movs	r3, #0
 80008be:	73bb      	strb	r3, [r7, #14]
 80008c0:	e009      	b.n	80008d6 <USER_OLED_Clear_Buffer+0x28>
      {
	  screen_buffer[i][j] = 0;
 80008c2:	7bfb      	ldrb	r3, [r7, #15]
 80008c4:	01db      	lsls	r3, r3, #7
 80008c6:	687a      	ldr	r2, [r7, #4]
 80008c8:	441a      	add	r2, r3
 80008ca:	7bbb      	ldrb	r3, [r7, #14]
 80008cc:	2100      	movs	r1, #0
 80008ce:	54d1      	strb	r1, [r2, r3]
      for(j = 0; j < OLED_SCREEN_COLUMNS; j++)
 80008d0:	7bbb      	ldrb	r3, [r7, #14]
 80008d2:	3301      	adds	r3, #1
 80008d4:	73bb      	strb	r3, [r7, #14]
 80008d6:	f997 300e 	ldrsb.w	r3, [r7, #14]
 80008da:	2b00      	cmp	r3, #0
 80008dc:	daf1      	bge.n	80008c2 <USER_OLED_Clear_Buffer+0x14>
  for(i = 0; i < OLED_SCREEN_ROWS; i++)
 80008de:	7bfb      	ldrb	r3, [r7, #15]
 80008e0:	3301      	adds	r3, #1
 80008e2:	73fb      	strb	r3, [r7, #15]
 80008e4:	7bfb      	ldrb	r3, [r7, #15]
 80008e6:	2b07      	cmp	r3, #7
 80008e8:	d9e8      	bls.n	80008bc <USER_OLED_Clear_Buffer+0xe>
      }
  }
}
 80008ea:	bf00      	nop
 80008ec:	bf00      	nop
 80008ee:	3714      	adds	r7, #20
 80008f0:	46bd      	mov	sp, r7
 80008f2:	bc80      	pop	{r7}
 80008f4:	4770      	bx	lr

080008f6 <USER_OLED_Update_Buffer>:

void USER_OLED_Update_Buffer( ImgType img, uint8_t img_num, char screen_buffer[OLED_SCREEN_ROWS][OLED_SCREEN_COLUMNS] )
{
 80008f6:	b084      	sub	sp, #16
 80008f8:	b480      	push	{r7}
 80008fa:	b085      	sub	sp, #20
 80008fc:	af00      	add	r7, sp, #0
 80008fe:	f107 0c18 	add.w	ip, r7, #24
 8000902:	e88c 000f 	stmia.w	ip, {r0, r1, r2, r3}
  uint16_t x_dir, y_dir, end_x, end_y, cnt = 0;
 8000906:	2300      	movs	r3, #0
 8000908:	80fb      	strh	r3, [r7, #6]

  if( ( img.width + img.x_pos ) > OLED_SCREEN_COLUMNS )
 800090a:	7e7b      	ldrb	r3, [r7, #25]
 800090c:	461a      	mov	r2, r3
 800090e:	f897 3094 	ldrb.w	r3, [r7, #148]	; 0x94
 8000912:	4413      	add	r3, r2
 8000914:	2b80      	cmp	r3, #128	; 0x80
 8000916:	dd02      	ble.n	800091e <USER_OLED_Update_Buffer+0x28>
  {
      end_x = OLED_SCREEN_COLUMNS - 1;
 8000918:	237f      	movs	r3, #127	; 0x7f
 800091a:	817b      	strh	r3, [r7, #10]
 800091c:	e008      	b.n	8000930 <USER_OLED_Update_Buffer+0x3a>
  }
  else
  {
      end_x = img.width + img.x_pos - 1;
 800091e:	7e7b      	ldrb	r3, [r7, #25]
 8000920:	b29a      	uxth	r2, r3
 8000922:	f897 3094 	ldrb.w	r3, [r7, #148]	; 0x94
 8000926:	b29b      	uxth	r3, r3
 8000928:	4413      	add	r3, r2
 800092a:	b29b      	uxth	r3, r3
 800092c:	3b01      	subs	r3, #1
 800092e:	817b      	strh	r3, [r7, #10]
  }

  if( ( img.height + img.y_pos ) > OLED_SCREEN_ROWS )
 8000930:	7e3b      	ldrb	r3, [r7, #24]
 8000932:	461a      	mov	r2, r3
 8000934:	f897 3095 	ldrb.w	r3, [r7, #149]	; 0x95
 8000938:	4413      	add	r3, r2
 800093a:	2b08      	cmp	r3, #8
 800093c:	dd02      	ble.n	8000944 <USER_OLED_Update_Buffer+0x4e>
  {
      end_y = OLED_SCREEN_ROWS - 1;
 800093e:	2307      	movs	r3, #7
 8000940:	813b      	strh	r3, [r7, #8]
 8000942:	e008      	b.n	8000956 <USER_OLED_Update_Buffer+0x60>
  }
  else
  {
      end_y = img.height + img.y_pos - 1;
 8000944:	7e3b      	ldrb	r3, [r7, #24]
 8000946:	b29a      	uxth	r2, r3
 8000948:	f897 3095 	ldrb.w	r3, [r7, #149]	; 0x95
 800094c:	b29b      	uxth	r3, r3
 800094e:	4413      	add	r3, r2
 8000950:	b29b      	uxth	r3, r3
 8000952:	3b01      	subs	r3, #1
 8000954:	813b      	strh	r3, [r7, #8]
  }

  for(y_dir = img.y_pos; y_dir <= end_y; y_dir++)
 8000956:	f897 3095 	ldrb.w	r3, [r7, #149]	; 0x95
 800095a:	81bb      	strh	r3, [r7, #12]
 800095c:	e02f      	b.n	80009be <USER_OLED_Update_Buffer+0xc8>
  {
    for (x_dir= img.x_pos; x_dir <= end_x; x_dir++)
 800095e:	f897 3094 	ldrb.w	r3, [r7, #148]	; 0x94
 8000962:	81fb      	strh	r3, [r7, #14]
 8000964:	e024      	b.n	80009b0 <USER_OLED_Update_Buffer+0xba>
    {
      cnt =( y_dir - img.y_pos ) * img.width + x_dir - img.x_pos;
 8000966:	89bb      	ldrh	r3, [r7, #12]
 8000968:	f897 2095 	ldrb.w	r2, [r7, #149]	; 0x95
 800096c:	1a9b      	subs	r3, r3, r2
 800096e:	b29b      	uxth	r3, r3
 8000970:	7e7a      	ldrb	r2, [r7, #25]
 8000972:	b292      	uxth	r2, r2
 8000974:	fb02 f303 	mul.w	r3, r2, r3
 8000978:	b29a      	uxth	r2, r3
 800097a:	89fb      	ldrh	r3, [r7, #14]
 800097c:	4413      	add	r3, r2
 800097e:	b29a      	uxth	r2, r3
 8000980:	f897 3094 	ldrb.w	r3, [r7, #148]	; 0x94
 8000984:	b29b      	uxth	r3, r3
 8000986:	1ad3      	subs	r3, r2, r3
 8000988:	80fb      	strh	r3, [r7, #6]
      screen_buffer[y_dir][x_dir] = img.image[img_num][cnt];
 800098a:	f897 3098 	ldrb.w	r3, [r7, #152]	; 0x98
 800098e:	009b      	lsls	r3, r3, #2
 8000990:	3318      	adds	r3, #24
 8000992:	443b      	add	r3, r7
 8000994:	685a      	ldr	r2, [r3, #4]
 8000996:	88fb      	ldrh	r3, [r7, #6]
 8000998:	18d1      	adds	r1, r2, r3
 800099a:	89bb      	ldrh	r3, [r7, #12]
 800099c:	01db      	lsls	r3, r3, #7
 800099e:	f8d7 209c 	ldr.w	r2, [r7, #156]	; 0x9c
 80009a2:	441a      	add	r2, r3
 80009a4:	89fb      	ldrh	r3, [r7, #14]
 80009a6:	7809      	ldrb	r1, [r1, #0]
 80009a8:	54d1      	strb	r1, [r2, r3]
    for (x_dir= img.x_pos; x_dir <= end_x; x_dir++)
 80009aa:	89fb      	ldrh	r3, [r7, #14]
 80009ac:	3301      	adds	r3, #1
 80009ae:	81fb      	strh	r3, [r7, #14]
 80009b0:	89fa      	ldrh	r2, [r7, #14]
 80009b2:	897b      	ldrh	r3, [r7, #10]
 80009b4:	429a      	cmp	r2, r3
 80009b6:	d9d6      	bls.n	8000966 <USER_OLED_Update_Buffer+0x70>
  for(y_dir = img.y_pos; y_dir <= end_y; y_dir++)
 80009b8:	89bb      	ldrh	r3, [r7, #12]
 80009ba:	3301      	adds	r3, #1
 80009bc:	81bb      	strh	r3, [r7, #12]
 80009be:	89ba      	ldrh	r2, [r7, #12]
 80009c0:	893b      	ldrh	r3, [r7, #8]
 80009c2:	429a      	cmp	r2, r3
 80009c4:	d9cb      	bls.n	800095e <USER_OLED_Update_Buffer+0x68>
    }
  }
}
 80009c6:	bf00      	nop
 80009c8:	bf00      	nop
 80009ca:	3714      	adds	r7, #20
 80009cc:	46bd      	mov	sp, r7
 80009ce:	bc80      	pop	{r7}
 80009d0:	b004      	add	sp, #16
 80009d2:	4770      	bx	lr

080009d4 <USER_OLED_Print_Buffer>:
    i++;
  }
}

void USER_OLED_Print_Buffer( uint8_t I2C, char screen_buffer[OLED_SCREEN_ROWS][OLED_SCREEN_COLUMNS] )
{
 80009d4:	b580      	push	{r7, lr}
 80009d6:	b084      	sub	sp, #16
 80009d8:	af00      	add	r7, sp, #0
 80009da:	4603      	mov	r3, r0
 80009dc:	6039      	str	r1, [r7, #0]
 80009de:	71fb      	strb	r3, [r7, #7]
  USER_OLED_Position( I2C, 0, 0 );
 80009e0:	79fb      	ldrb	r3, [r7, #7]
 80009e2:	2200      	movs	r2, #0
 80009e4:	2100      	movs	r1, #0
 80009e6:	4618      	mov	r0, r3
 80009e8:	f7ff fec0 	bl	800076c <USER_OLED_Position>

  uint8_t i, j;

  for (i = 0; i < OLED_SCREEN_ROWS; i++)
 80009ec:	2300      	movs	r3, #0
 80009ee:	73fb      	strb	r3, [r7, #15]
 80009f0:	e017      	b.n	8000a22 <USER_OLED_Print_Buffer+0x4e>
  {
    for(j = 0; j < OLED_SCREEN_COLUMNS; j++)
 80009f2:	2300      	movs	r3, #0
 80009f4:	73bb      	strb	r3, [r7, #14]
 80009f6:	e00d      	b.n	8000a14 <USER_OLED_Print_Buffer+0x40>
    {
	USER_OLED_Data( I2C, screen_buffer[i][j] );
 80009f8:	7bfb      	ldrb	r3, [r7, #15]
 80009fa:	01db      	lsls	r3, r3, #7
 80009fc:	683a      	ldr	r2, [r7, #0]
 80009fe:	441a      	add	r2, r3
 8000a00:	7bbb      	ldrb	r3, [r7, #14]
 8000a02:	5cd2      	ldrb	r2, [r2, r3]
 8000a04:	79fb      	ldrb	r3, [r7, #7]
 8000a06:	4611      	mov	r1, r2
 8000a08:	4618      	mov	r0, r3
 8000a0a:	f7ff fe8a 	bl	8000722 <USER_OLED_Data>
    for(j = 0; j < OLED_SCREEN_COLUMNS; j++)
 8000a0e:	7bbb      	ldrb	r3, [r7, #14]
 8000a10:	3301      	adds	r3, #1
 8000a12:	73bb      	strb	r3, [r7, #14]
 8000a14:	f997 300e 	ldrsb.w	r3, [r7, #14]
 8000a18:	2b00      	cmp	r3, #0
 8000a1a:	daed      	bge.n	80009f8 <USER_OLED_Print_Buffer+0x24>
  for (i = 0; i < OLED_SCREEN_ROWS; i++)
 8000a1c:	7bfb      	ldrb	r3, [r7, #15]
 8000a1e:	3301      	adds	r3, #1
 8000a20:	73fb      	strb	r3, [r7, #15]
 8000a22:	7bfb      	ldrb	r3, [r7, #15]
 8000a24:	2b07      	cmp	r3, #7
 8000a26:	d9e4      	bls.n	80009f2 <USER_OLED_Print_Buffer+0x1e>
    }
  }
}
 8000a28:	bf00      	nop
 8000a2a:	bf00      	nop
 8000a2c:	3710      	adds	r7, #16
 8000a2e:	46bd      	mov	sp, r7
 8000a30:	bd80      	pop	{r7, pc}
	...

08000a34 <USER_SYSTICK_Init>:

#include "main.h"
#include "SYSTICK.h"

void USER_SYSTICK_Init( void )
{
 8000a34:	b480      	push	{r7}
 8000a36:	af00      	add	r7, sp, #0
    SYSTICK->CTRL	= 0;				// Clear register
 8000a38:	4b0c      	ldr	r3, [pc, #48]	; (8000a6c <USER_SYSTICK_Init+0x38>)
 8000a3a:	2200      	movs	r2, #0
 8000a3c:	601a      	str	r2, [r3, #0]
    SYSTICK->LOAD	= 0x00FFFFFF;			// Max start value
 8000a3e:	4b0b      	ldr	r3, [pc, #44]	; (8000a6c <USER_SYSTICK_Init+0x38>)
 8000a40:	f06f 427f 	mvn.w	r2, #4278190080	; 0xff000000
 8000a44:	605a      	str	r2, [r3, #4]
    SYSTICK->VAL	= 0;				// Clear register
 8000a46:	4b09      	ldr	r3, [pc, #36]	; (8000a6c <USER_SYSTICK_Init+0x38>)
 8000a48:	2200      	movs	r2, #0
 8000a4a:	609a      	str	r2, [r3, #8]

    SYSTICK->CTRL	|=	SYSTICK_CTRL_CLKSOURCE;	// Clock source is processor clock (AHB)
 8000a4c:	4b07      	ldr	r3, [pc, #28]	; (8000a6c <USER_SYSTICK_Init+0x38>)
 8000a4e:	681b      	ldr	r3, [r3, #0]
 8000a50:	4a06      	ldr	r2, [pc, #24]	; (8000a6c <USER_SYSTICK_Init+0x38>)
 8000a52:	f043 0304 	orr.w	r3, r3, #4
 8000a56:	6013      	str	r3, [r2, #0]
    SYSTICK->CTRL	|=	SYSTICK_CTRL_ENABLE;	// Counter enabled
 8000a58:	4b04      	ldr	r3, [pc, #16]	; (8000a6c <USER_SYSTICK_Init+0x38>)
 8000a5a:	681b      	ldr	r3, [r3, #0]
 8000a5c:	4a03      	ldr	r2, [pc, #12]	; (8000a6c <USER_SYSTICK_Init+0x38>)
 8000a5e:	f043 0301 	orr.w	r3, r3, #1
 8000a62:	6013      	str	r3, [r2, #0]
}
 8000a64:	bf00      	nop
 8000a66:	46bd      	mov	sp, r7
 8000a68:	bc80      	pop	{r7}
 8000a6a:	4770      	bx	lr
 8000a6c:	e000e010 	.word	0xe000e010

08000a70 <USER_SYSTICK_Delay_Millis>:

void USER_SYSTICK_Delay_Millis( void )
{
 8000a70:	b480      	push	{r7}
 8000a72:	af00      	add	r7, sp, #0
  SYSTICK->LOAD		=	0x11940;
 8000a74:	4b08      	ldr	r3, [pc, #32]	; (8000a98 <USER_SYSTICK_Delay_Millis+0x28>)
 8000a76:	4a09      	ldr	r2, [pc, #36]	; (8000a9c <USER_SYSTICK_Delay_Millis+0x2c>)
 8000a78:	605a      	str	r2, [r3, #4]
  SYSTICK->VAL		=	0;
 8000a7a:	4b07      	ldr	r3, [pc, #28]	; (8000a98 <USER_SYSTICK_Delay_Millis+0x28>)
 8000a7c:	2200      	movs	r2, #0
 8000a7e:	609a      	str	r2, [r3, #8]
  while(!(SYSTICK->CTRL & SYSTICK_CTRL_COUNTFLAG));	// Returns 1 if timer counted to 0 since last time this was read
 8000a80:	bf00      	nop
 8000a82:	4b05      	ldr	r3, [pc, #20]	; (8000a98 <USER_SYSTICK_Delay_Millis+0x28>)
 8000a84:	681b      	ldr	r3, [r3, #0]
 8000a86:	f403 3380 	and.w	r3, r3, #65536	; 0x10000
 8000a8a:	2b00      	cmp	r3, #0
 8000a8c:	d0f9      	beq.n	8000a82 <USER_SYSTICK_Delay_Millis+0x12>
}
 8000a8e:	bf00      	nop
 8000a90:	bf00      	nop
 8000a92:	46bd      	mov	sp, r7
 8000a94:	bc80      	pop	{r7}
 8000a96:	4770      	bx	lr
 8000a98:	e000e010 	.word	0xe000e010
 8000a9c:	00011940 	.word	0x00011940

08000aa0 <USER_SYSTICK_Delay_ms>:

void USER_SYSTICK_Delay_ms( uint32_t t )
{
 8000aa0:	b580      	push	{r7, lr}
 8000aa2:	b082      	sub	sp, #8
 8000aa4:	af00      	add	r7, sp, #0
 8000aa6:	6078      	str	r0, [r7, #4]
  for(; t > 0; t--)
 8000aa8:	e004      	b.n	8000ab4 <USER_SYSTICK_Delay_ms+0x14>
  {
      USER_SYSTICK_Delay_Millis();
 8000aaa:	f7ff ffe1 	bl	8000a70 <USER_SYSTICK_Delay_Millis>
  for(; t > 0; t--)
 8000aae:	687b      	ldr	r3, [r7, #4]
 8000ab0:	3b01      	subs	r3, #1
 8000ab2:	607b      	str	r3, [r7, #4]
 8000ab4:	687b      	ldr	r3, [r7, #4]
 8000ab6:	2b00      	cmp	r3, #0
 8000ab8:	d1f7      	bne.n	8000aaa <USER_SYSTICK_Delay_ms+0xa>
  }
}
 8000aba:	bf00      	nop
 8000abc:	bf00      	nop
 8000abe:	3708      	adds	r7, #8
 8000ac0:	46bd      	mov	sp, r7
 8000ac2:	bd80      	pop	{r7, pc}

08000ac4 <main>:

char oled_buffer[OLED_SCREEN_ROWS][OLED_SCREEN_COLUMNS];
uint8_t i, j;

int main( void )
{
 8000ac4:	b580      	push	{r7, lr}
 8000ac6:	b0be      	sub	sp, #248	; 0xf8
 8000ac8:	af1e      	add	r7, sp, #120	; 0x78
  USER_SYSTICK_Init();
 8000aca:	f7ff ffb3 	bl	8000a34 <USER_SYSTICK_Init>
  RCC->APB2ENR	|=	RCC_APB2ENR_IOPBEN;
 8000ace:	4b1e      	ldr	r3, [pc, #120]	; (8000b48 <main+0x84>)
 8000ad0:	699b      	ldr	r3, [r3, #24]
 8000ad2:	4a1d      	ldr	r2, [pc, #116]	; (8000b48 <main+0x84>)
 8000ad4:	f043 0308 	orr.w	r3, r3, #8
 8000ad8:	6193      	str	r3, [r2, #24]

  USER_OLED_Init_64(I2C_1);
 8000ada:	2000      	movs	r0, #0
 8000adc:	f7ff fe13 	bl	8000706 <USER_OLED_Init_64>
  USER_OLED_Blank(I2C_1);
 8000ae0:	2000      	movs	r0, #0
 8000ae2:	f7ff fe6b 	bl	80007bc <USER_OLED_Blank>
  USER_OLED_Message(I2C_1, "JOHN DEERE", OLED_SCREEN_COLUMNS / 4, OLED_SCREEN_ROWS / 2);
 8000ae6:	2304      	movs	r3, #4
 8000ae8:	2220      	movs	r2, #32
 8000aea:	4918      	ldr	r1, [pc, #96]	; (8000b4c <main+0x88>)
 8000aec:	2000      	movs	r0, #0
 8000aee:	f7ff fec3 	bl	8000878 <USER_OLED_Message>
  USER_SYSTICK_Delay_ms( 200 );
 8000af2:	20c8      	movs	r0, #200	; 0xc8
 8000af4:	f7ff ffd4 	bl	8000aa0 <USER_SYSTICK_Delay_ms>

  ImgType john_deere_logo_img = {.height = john_deere_logo_rows, .width = john_deere_logo_cols, .x_pos = 0, .y_pos =0};
 8000af8:	463b      	mov	r3, r7
 8000afa:	2280      	movs	r2, #128	; 0x80
 8000afc:	2100      	movs	r1, #0
 8000afe:	4618      	mov	r0, r3
 8000b00:	f000 f857 	bl	8000bb2 <memset>
 8000b04:	4b12      	ldr	r3, [pc, #72]	; (8000b50 <main+0x8c>)
 8000b06:	781b      	ldrb	r3, [r3, #0]
 8000b08:	703b      	strb	r3, [r7, #0]
 8000b0a:	4b12      	ldr	r3, [pc, #72]	; (8000b54 <main+0x90>)
 8000b0c:	781b      	ldrb	r3, [r3, #0]
 8000b0e:	707b      	strb	r3, [r7, #1]
  john_deere_logo_img.image[0] = john_deere_logo;
 8000b10:	4b11      	ldr	r3, [pc, #68]	; (8000b58 <main+0x94>)
 8000b12:	607b      	str	r3, [r7, #4]

  USER_OLED_Clear_Buffer(oled_buffer);
 8000b14:	4811      	ldr	r0, [pc, #68]	; (8000b5c <main+0x98>)
 8000b16:	f7ff feca 	bl	80008ae <USER_OLED_Clear_Buffer>
  USER_OLED_Update_Buffer(john_deere_logo_img, 0, oled_buffer);
 8000b1a:	4b10      	ldr	r3, [pc, #64]	; (8000b5c <main+0x98>)
 8000b1c:	931d      	str	r3, [sp, #116]	; 0x74
 8000b1e:	2300      	movs	r3, #0
 8000b20:	931c      	str	r3, [sp, #112]	; 0x70
 8000b22:	4668      	mov	r0, sp
 8000b24:	f107 0310 	add.w	r3, r7, #16
 8000b28:	2270      	movs	r2, #112	; 0x70
 8000b2a:	4619      	mov	r1, r3
 8000b2c:	f000 f86e 	bl	8000c0c <memcpy>
 8000b30:	463b      	mov	r3, r7
 8000b32:	cb0f      	ldmia	r3, {r0, r1, r2, r3}
 8000b34:	f7ff fedf 	bl	80008f6 <USER_OLED_Update_Buffer>
  USER_OLED_Print_Buffer(I2C_1, oled_buffer);
 8000b38:	4908      	ldr	r1, [pc, #32]	; (8000b5c <main+0x98>)
 8000b3a:	2000      	movs	r0, #0
 8000b3c:	f7ff ff4a 	bl	80009d4 <USER_OLED_Print_Buffer>
  USER_SYSTICK_Delay_ms( 1 );
 8000b40:	2001      	movs	r0, #1
 8000b42:	f7ff ffad 	bl	8000aa0 <USER_SYSTICK_Delay_ms>

  for(;;)
 8000b46:	e7fe      	b.n	8000b46 <main+0x82>
 8000b48:	40021000 	.word	0x40021000
 8000b4c:	08000c40 	.word	0x08000c40
 8000b50:	20000000 	.word	0x20000000
 8000b54:	20000001 	.word	0x20000001
 8000b58:	08000e2c 	.word	0x08000e2c
 8000b5c:	20000020 	.word	0x20000020

08000b60 <Reset_Handler>:

  .section .text.Reset_Handler
  .weak Reset_Handler
  .type Reset_Handler, %function
Reset_Handler:
  ldr   r0, =_estack
 8000b60:	480d      	ldr	r0, [pc, #52]	; (8000b98 <LoopForever+0x2>)
  mov   sp, r0          /* set stack pointer */
 8000b62:	4685      	mov	sp, r0
/* Call the clock system initialization function.*/
  bl  SystemInit
 8000b64:	f3af 8000 	nop.w

/* Copy the data segment initializers from flash to SRAM */
  ldr r0, =_sdata
 8000b68:	480c      	ldr	r0, [pc, #48]	; (8000b9c <LoopForever+0x6>)
  ldr r1, =_edata
 8000b6a:	490d      	ldr	r1, [pc, #52]	; (8000ba0 <LoopForever+0xa>)
  ldr r2, =_sidata
 8000b6c:	4a0d      	ldr	r2, [pc, #52]	; (8000ba4 <LoopForever+0xe>)
  movs r3, #0
 8000b6e:	2300      	movs	r3, #0
  b LoopCopyDataInit
 8000b70:	e002      	b.n	8000b78 <LoopCopyDataInit>

08000b72 <CopyDataInit>:

CopyDataInit:
  ldr r4, [r2, r3]
 8000b72:	58d4      	ldr	r4, [r2, r3]
  str r4, [r0, r3]
 8000b74:	50c4      	str	r4, [r0, r3]
  adds r3, r3, #4
 8000b76:	3304      	adds	r3, #4

08000b78 <LoopCopyDataInit>:

LoopCopyDataInit:
  adds r4, r0, r3
 8000b78:	18c4      	adds	r4, r0, r3
  cmp r4, r1
 8000b7a:	428c      	cmp	r4, r1
  bcc CopyDataInit
 8000b7c:	d3f9      	bcc.n	8000b72 <CopyDataInit>

/* Zero fill the bss segment. */
  ldr r2, =_sbss
 8000b7e:	4a0a      	ldr	r2, [pc, #40]	; (8000ba8 <LoopForever+0x12>)
  ldr r4, =_ebss
 8000b80:	4c0a      	ldr	r4, [pc, #40]	; (8000bac <LoopForever+0x16>)
  movs r3, #0
 8000b82:	2300      	movs	r3, #0
  b LoopFillZerobss
 8000b84:	e001      	b.n	8000b8a <LoopFillZerobss>

08000b86 <FillZerobss>:

FillZerobss:
  str  r3, [r2]
 8000b86:	6013      	str	r3, [r2, #0]
  adds r2, r2, #4
 8000b88:	3204      	adds	r2, #4

08000b8a <LoopFillZerobss>:

LoopFillZerobss:
  cmp r2, r4
 8000b8a:	42a2      	cmp	r2, r4
  bcc FillZerobss
 8000b8c:	d3fb      	bcc.n	8000b86 <FillZerobss>

/* Call static constructors */
  bl __libc_init_array
 8000b8e:	f000 f819 	bl	8000bc4 <__libc_init_array>
/* Call the application's entry point.*/
  bl main
 8000b92:	f7ff ff97 	bl	8000ac4 <main>

08000b96 <LoopForever>:

LoopForever:
  b LoopForever
 8000b96:	e7fe      	b.n	8000b96 <LoopForever>
  ldr   r0, =_estack
 8000b98:	20005000 	.word	0x20005000
  ldr r0, =_sdata
 8000b9c:	20000000 	.word	0x20000000
  ldr r1, =_edata
 8000ba0:	20000004 	.word	0x20000004
  ldr r2, =_sidata
 8000ba4:	08001234 	.word	0x08001234
  ldr r2, =_sbss
 8000ba8:	20000004 	.word	0x20000004
  ldr r4, =_ebss
 8000bac:	20000420 	.word	0x20000420

08000bb0 <ADC1_2_IRQHandler>:
 * @retval : None
*/
  .section .text.Default_Handler,"ax",%progbits
Default_Handler:
Infinite_Loop:
  b Infinite_Loop
 8000bb0:	e7fe      	b.n	8000bb0 <ADC1_2_IRQHandler>

08000bb2 <memset>:
 8000bb2:	4603      	mov	r3, r0
 8000bb4:	4402      	add	r2, r0
 8000bb6:	4293      	cmp	r3, r2
 8000bb8:	d100      	bne.n	8000bbc <memset+0xa>
 8000bba:	4770      	bx	lr
 8000bbc:	f803 1b01 	strb.w	r1, [r3], #1
 8000bc0:	e7f9      	b.n	8000bb6 <memset+0x4>
	...

08000bc4 <__libc_init_array>:
 8000bc4:	b570      	push	{r4, r5, r6, lr}
 8000bc6:	2600      	movs	r6, #0
 8000bc8:	4d0c      	ldr	r5, [pc, #48]	; (8000bfc <__libc_init_array+0x38>)
 8000bca:	4c0d      	ldr	r4, [pc, #52]	; (8000c00 <__libc_init_array+0x3c>)
 8000bcc:	1b64      	subs	r4, r4, r5
 8000bce:	10a4      	asrs	r4, r4, #2
 8000bd0:	42a6      	cmp	r6, r4
 8000bd2:	d109      	bne.n	8000be8 <__libc_init_array+0x24>
 8000bd4:	f000 f828 	bl	8000c28 <_init>
 8000bd8:	2600      	movs	r6, #0
 8000bda:	4d0a      	ldr	r5, [pc, #40]	; (8000c04 <__libc_init_array+0x40>)
 8000bdc:	4c0a      	ldr	r4, [pc, #40]	; (8000c08 <__libc_init_array+0x44>)
 8000bde:	1b64      	subs	r4, r4, r5
 8000be0:	10a4      	asrs	r4, r4, #2
 8000be2:	42a6      	cmp	r6, r4
 8000be4:	d105      	bne.n	8000bf2 <__libc_init_array+0x2e>
 8000be6:	bd70      	pop	{r4, r5, r6, pc}
 8000be8:	f855 3b04 	ldr.w	r3, [r5], #4
 8000bec:	4798      	blx	r3
 8000bee:	3601      	adds	r6, #1
 8000bf0:	e7ee      	b.n	8000bd0 <__libc_init_array+0xc>
 8000bf2:	f855 3b04 	ldr.w	r3, [r5], #4
 8000bf6:	4798      	blx	r3
 8000bf8:	3601      	adds	r6, #1
 8000bfa:	e7f2      	b.n	8000be2 <__libc_init_array+0x1e>
 8000bfc:	0800122c 	.word	0x0800122c
 8000c00:	0800122c 	.word	0x0800122c
 8000c04:	0800122c 	.word	0x0800122c
 8000c08:	08001230 	.word	0x08001230

08000c0c <memcpy>:
 8000c0c:	440a      	add	r2, r1
 8000c0e:	4291      	cmp	r1, r2
 8000c10:	f100 33ff 	add.w	r3, r0, #4294967295
 8000c14:	d100      	bne.n	8000c18 <memcpy+0xc>
 8000c16:	4770      	bx	lr
 8000c18:	b510      	push	{r4, lr}
 8000c1a:	f811 4b01 	ldrb.w	r4, [r1], #1
 8000c1e:	4291      	cmp	r1, r2
 8000c20:	f803 4f01 	strb.w	r4, [r3, #1]!
 8000c24:	d1f9      	bne.n	8000c1a <memcpy+0xe>
 8000c26:	bd10      	pop	{r4, pc}

08000c28 <_init>:
 8000c28:	b5f8      	push	{r3, r4, r5, r6, r7, lr}
 8000c2a:	bf00      	nop
 8000c2c:	bcf8      	pop	{r3, r4, r5, r6, r7}
 8000c2e:	bc08      	pop	{r3}
 8000c30:	469e      	mov	lr, r3
 8000c32:	4770      	bx	lr

08000c34 <_fini>:
 8000c34:	b5f8      	push	{r3, r4, r5, r6, r7, lr}
 8000c36:	bf00      	nop
 8000c38:	bcf8      	pop	{r3, r4, r5, r6, r7}
 8000c3a:	bc08      	pop	{r3}
 8000c3c:	469e      	mov	lr, r3
 8000c3e:	4770      	bx	lr
